---
triple:          'arm64-apple-darwin'
binary-path:     main
relocations:
  - { offsetInCU: 0x4CD7, offset: 0x4CD7, size: 0x8, addend: 0x0, symName: __ZNSt3__124__put_character_sequenceB7v160006IcNS_11char_traitsIcEEEERNS_13basic_ostreamIT_T0_EES7_PKS4_m, symObjAddr: 0x3600, symBinAddr: 0x100005CC0, symSize: 0x1F4 }
  - { offsetInCU: 0x681A, offset: 0x681A, size: 0x8, addend: 0x0, symName: __ZNSt3__1eqB7v160006INS_9allocatorIcEEEEbRKNS_12basic_stringIcNS_11char_traitsIcEET_EES9_, symObjAddr: 0x3C0, symBinAddr: 0x100002A80, symSize: 0x148 }
  - { offsetInCU: 0x68A9, offset: 0x68A9, size: 0x8, addend: 0x0, symName: __ZNSt3__1lsB7v160006IcNS_11char_traitsIcEENS_9allocatorIcEEEERNS_13basic_ostreamIT_T0_EES9_RKNS_12basic_stringIS6_S7_T1_EE, symObjAddr: 0x698, symBinAddr: 0x100002D58, symSize: 0x4C }
  - { offsetInCU: 0x6901, offset: 0x6901, size: 0x8, addend: 0x0, symName: __ZNSt3__1lsB7v160006INS_11char_traitsIcEEEERNS_13basic_ostreamIcT_EES6_PKc, symObjAddr: 0x6E4, symBinAddr: 0x100002DA4, symSize: 0x48 }
  - { offsetInCU: 0x6947, offset: 0x6947, size: 0x8, addend: 0x0, symName: __ZNSt3__14endlB7v160006IcNS_11char_traitsIcEEEERNS_13basic_ostreamIT_T0_EES7_, symObjAddr: 0x758, symBinAddr: 0x100002E18, symSize: 0x58 }
  - { offsetInCU: 0x6987, offset: 0x6987, size: 0x8, addend: 0x0, symName: __ZNSt3__119__debug_db_insert_cB7v160006INS_12basic_stringIcNS_11char_traitsIcEENS_9allocatorIcEEEEEEvPT_, symObjAddr: 0xAD4, symBinAddr: 0x100003194, symSize: 0x10 }
  - { offsetInCU: 0x69B8, offset: 0x69B8, size: 0x8, addend: 0x0, symName: __ZNSt3__118__constexpr_strlenB7v160006EPKc, symObjAddr: 0xBA0, symBinAddr: 0x100003260, symSize: 0x24 }
  - { offsetInCU: 0x69E4, offset: 0x69E4, size: 0x8, addend: 0x0, symName: __ZNSt3__119__debug_db_insert_cB7v160006INS_6vectorI4SongNS_9allocatorIS2_EEEEEEvPT_, symObjAddr: 0xC4C, symBinAddr: 0x10000330C, symSize: 0x10 }
  - { offsetInCU: 0x6A15, offset: 0x6A15, size: 0x8, addend: 0x0, symName: __ZNSt3__112__to_addressB7v160006I4SongEEPT_S3_, symObjAddr: 0xF94, symBinAddr: 0x100003654, symSize: 0x14 }
  - { offsetInCU: 0x6A4A, offset: 0x6A4A, size: 0x8, addend: 0x0, symName: __ZNSt3__13maxB7v160006ImEERKT_S3_S3_, symObjAddr: 0x1460, symBinAddr: 0x100003B20, symSize: 0x2C }
  - { offsetInCU: 0x6A8D, offset: 0x6A8D, size: 0x8, addend: 0x0, symName: __ZNSt3__13minB7v160006ImEERKT_S3_S3_, symObjAddr: 0x148C, symBinAddr: 0x100003B4C, symSize: 0x2C }
  - { offsetInCU: 0x6CD1, offset: 0x6CD1, size: 0x8, addend: 0x0, symName: __ZNSt3__13minB7v160006ImNS_6__lessImmEEEERKT_S5_S5_T0_, symObjAddr: 0x1518, symBinAddr: 0x100003BD8, symSize: 0x54 }
  - { offsetInCU: 0x6D66, offset: 0x6D66, size: 0x8, addend: 0x0, symName: __ZNSt3__120__throw_length_errorB7v160006EPKc, symObjAddr: 0x15F8, symBinAddr: 0x100003CB8, symSize: 0x64 }
  - { offsetInCU: 0x6D8E, offset: 0x6D8E, size: 0x8, addend: 0x0, symName: __ZNSt3__13maxB7v160006ImNS_6__lessImmEEEERKT_S5_S5_T0_, symObjAddr: 0x173C, symBinAddr: 0x100003DFC, symSize: 0x54 }
  - { offsetInCU: 0x6DE8, offset: 0x6DE8, size: 0x8, addend: 0x0, symName: __ZNSt3__119__allocate_at_leastB7v160006INS_9allocatorI4SongEEEENS_19__allocation_resultINS_16allocator_traitsIT_E7pointerEEERS6_m, symObjAddr: 0x18AC, symBinAddr: 0x100003F6C, symSize: 0x40 }
  - { offsetInCU: 0x6E2B, offset: 0x6E2B, size: 0x8, addend: 0x0, symName: __ZNSt3__130__libcpp_is_constant_evaluatedB7v160006Ev, symObjAddr: 0x1A64, symBinAddr: 0x100004124, symSize: 0xC }
  - { offsetInCU: 0x6E48, offset: 0x6E48, size: 0x8, addend: 0x0, symName: __ZNSt3__117__libcpp_allocateB7v160006Emm, symObjAddr: 0x1A70, symBinAddr: 0x100004130, symSize: 0x28 }
  - { offsetInCU: 0x6E85, offset: 0x6E85, size: 0x8, addend: 0x0, symName: __ZNSt3__121__libcpp_operator_newB7v160006IJmEEEPvDpT_, symObjAddr: 0x1A98, symBinAddr: 0x100004158, symSize: 0x24 }
  - { offsetInCU: 0x6EBE, offset: 0x6EBE, size: 0x8, addend: 0x0, symName: __ZNSt3__142__uninitialized_allocator_move_if_noexceptB7v160006INS_9allocatorI4SongEENS_16reverse_iteratorIPS2_EES6_S6_EET2_RT_T0_T1_S7_, symObjAddr: 0x1BF4, symBinAddr: 0x1000042B4, symSize: 0x134 }
  - { offsetInCU: 0x6F5E, offset: 0x6F5E, size: 0x8, addend: 0x0, symName: __ZNSt3__14swapB7v160006IP4SongEEvRT_S4_, symObjAddr: 0x1D74, symBinAddr: 0x100004434, symSize: 0x3C }
  - { offsetInCU: 0x6FAF, offset: 0x6FAF, size: 0x8, addend: 0x0, symName: __ZNSt3__125__debug_db_invalidate_allB7v160006INS_6vectorI4SongNS_9allocatorIS2_EEEEEEvPT_, symObjAddr: 0x1E78, symBinAddr: 0x100004538, symSize: 0x10 }
  - { offsetInCU: 0x6FE0, offset: 0x6FE0, size: 0x8, addend: 0x0, symName: __ZNSt3__122__make_exception_guardB7v160006INS_29_AllocatorDestroyRangeReverseINS_9allocatorI4SongEENS_16reverse_iteratorIPS3_EEEEEENS_28__exception_guard_exceptionsIT_EESA_, symObjAddr: 0x1ED0, symBinAddr: 0x100004590, symSize: 0x4C }
  - { offsetInCU: 0x7016, offset: 0x7016, size: 0x8, addend: 0x0, symName: __ZNSt3__1neB7v160006IP4SongS2_EEbRKNS_16reverse_iteratorIT_EERKNS3_IT0_EE, symObjAddr: 0x1F60, symBinAddr: 0x100004620, symSize: 0x48 }
  - { offsetInCU: 0x7062, offset: 0x7062, size: 0x8, addend: 0x0, symName: __ZNSt3__112__to_addressB7v160006INS_16reverse_iteratorIP4SongEEvEENS_5decayIDTclsr19__to_address_helperIT_EE6__callclsr3stdE7declvalIRKS6_EEEEE4typeES8_, symObjAddr: 0x1FA8, symBinAddr: 0x100004668, symSize: 0x24 }
  - { offsetInCU: 0x70C1, offset: 0x70C1, size: 0x8, addend: 0x0, symName: __ZNSt3__119__allocator_destroyB7v160006INS_9allocatorI4SongEENS_16reverse_iteratorINS4_IPS2_EEEES7_EEvRT_T0_T1_, symObjAddr: 0x2264, symBinAddr: 0x100004924, symSize: 0x70 }
  - { offsetInCU: 0x7126, offset: 0x7126, size: 0x8, addend: 0x0, symName: __ZNSt3__1neB7v160006INS_16reverse_iteratorIP4SongEES4_EEbRKNS1_IT_EERKNS1_IT0_EE, symObjAddr: 0x2310, symBinAddr: 0x1000049D0, symSize: 0x60 }
  - { offsetInCU: 0x7172, offset: 0x7172, size: 0x8, addend: 0x0, symName: __ZNSt3__112__to_addressB7v160006INS_16reverse_iteratorINS1_IP4SongEEEEvEENS_5decayIDTclsr19__to_address_helperIT_EE6__callclsr3stdE7declvalIRKS7_EEEEE4typeES9_, symObjAddr: 0x239C, symBinAddr: 0x100004A5C, symSize: 0x24 }
  - { offsetInCU: 0x71D1, offset: 0x71D1, size: 0x8, addend: 0x0, symName: __ZNSt3__119__libcpp_deallocateB7v160006EPvmm, symObjAddr: 0x2838, symBinAddr: 0x100004EF8, symSize: 0x30 }
  - { offsetInCU: 0x7219, offset: 0x7219, size: 0x8, addend: 0x0, symName: __ZNSt3__127__do_deallocate_handle_sizeB7v160006IJEEEvPvmDpT_, symObjAddr: 0x2868, symBinAddr: 0x100004F28, symSize: 0x28 }
  - { offsetInCU: 0x7257, offset: 0x7257, size: 0x8, addend: 0x0, symName: __ZNSt3__124__libcpp_operator_deleteB7v160006IJPvEEEvDpT_, symObjAddr: 0x2890, symBinAddr: 0x100004F50, symSize: 0x24 }
  - { offsetInCU: 0x728C, offset: 0x728C, size: 0x8, addend: 0x0, symName: __ZNSt3__112__to_addressB7v160006IKcEEPT_S3_, symObjAddr: 0x2B04, symBinAddr: 0x1000051C4, symSize: 0x14 }
  - { offsetInCU: 0x72F4, offset: 0x72F4, size: 0x8, addend: 0x0, symName: __ZNSt3__118__constexpr_memcmpB7v160006IcEEiPKT_S3_m, symObjAddr: 0x2BD0, symBinAddr: 0x100005290, symSize: 0x34 }
  - { offsetInCU: 0x7345, offset: 0x7345, size: 0x8, addend: 0x0, symName: __ZNSt3__1miB7v160006IPK4SongS3_EENS_11__wrap_iterIT_E15difference_typeERKS6_RKNS4_IT0_EE, symObjAddr: 0x2CC8, symBinAddr: 0x100005388, symSize: 0x48 }
  - { offsetInCU: 0x7391, offset: 0x7391, size: 0x8, addend: 0x0, symName: __ZNSt3__14moveB7v160006IP4SongS2_EET0_T_S4_S3_, symObjAddr: 0x2DC4, symBinAddr: 0x100005484, symSize: 0x40 }
  - { offsetInCU: 0x73EB, offset: 0x73EB, size: 0x8, addend: 0x0, symName: __ZNSt3__16__moveB7v160006INS_17_ClassicAlgPolicyEP4SongS3_S3_EENS_4pairIT0_T2_EES5_T1_S6_, symObjAddr: 0x3064, symBinAddr: 0x100005724, symSize: 0x44 }
  - { offsetInCU: 0x7457, offset: 0x7457, size: 0x8, addend: 0x0, symName: __ZNSt3__123__dispatch_copy_or_moveB7v160006INS_17_ClassicAlgPolicyENS_11__move_loopIS1_EENS_14__move_trivialEP4SongS6_S6_EENS_4pairIT2_T4_EES8_T3_S9_, symObjAddr: 0x30A8, symBinAddr: 0x100005768, symSize: 0x70 }
  - { offsetInCU: 0x74D5, offset: 0x74D5, size: 0x8, addend: 0x0, symName: __ZNSt3__121__unwrap_and_dispatchB7v160006INS_11__move_loopINS_17_ClassicAlgPolicyEEEP4SongS5_S5_Li0EEENS_4pairIT0_T2_EES7_T1_S8_, symObjAddr: 0x3118, symBinAddr: 0x1000057D8, symSize: 0xB4 }
  - { offsetInCU: 0x7563, offset: 0x7563, size: 0x8, addend: 0x0, symName: __ZNSt3__121__unwrap_and_dispatchB7v160006INS_10__overloadINS_11__move_loopINS_17_ClassicAlgPolicyEEENS_14__move_trivialEEEP4SongS8_S8_Li0EEENS_4pairIT0_T2_EESA_T1_SB_, symObjAddr: 0x31CC, symBinAddr: 0x10000588C, symSize: 0xB4 }
  - { offsetInCU: 0x75F1, offset: 0x75F1, size: 0x8, addend: 0x0, symName: __ZNSt3__114__unwrap_rangeB7v160006IP4SongS2_EENS_4pairIT0_S4_EET_S6_, symObjAddr: 0x3280, symBinAddr: 0x100005940, symSize: 0x60 }
  - { offsetInCU: 0x7745, offset: 0x7745, size: 0x8, addend: 0x0, symName: __ZNSt3__113__unwrap_iterB7v160006IP4SongNS_18__unwrap_iter_implIS2_Lb1EEELi0EEEDTclsrT0_8__unwrapclsr3stdE7declvalIT_EEEES6_, symObjAddr: 0x3370, symBinAddr: 0x100005A30, symSize: 0x24 }
  - { offsetInCU: 0x7789, offset: 0x7789, size: 0x8, addend: 0x0, symName: __ZNSt3__19make_pairB7v160006IP4SongS2_EENS_4pairINS_18__unwrap_ref_decayIT_E4typeENS4_IT0_E4typeEEEOS5_OS8_, symObjAddr: 0x3394, symBinAddr: 0x100005A54, symSize: 0x38 }
  - { offsetInCU: 0x77D8, offset: 0x77D8, size: 0x8, addend: 0x0, symName: __ZNSt3__114__rewrap_rangeB7v160006IP4SongS2_EET_S3_T0_, symObjAddr: 0x33CC, symBinAddr: 0x100005A8C, symSize: 0x2C }
  - { offsetInCU: 0x7824, offset: 0x7824, size: 0x8, addend: 0x0, symName: __ZNSt3__113__rewrap_iterB7v160006IP4SongS2_NS_18__unwrap_iter_implIS2_Lb1EEEEET_S5_T0_, symObjAddr: 0x33F8, symBinAddr: 0x100005AB8, symSize: 0x50 }
  - { offsetInCU: 0x7936, offset: 0x7936, size: 0x8, addend: 0x0, symName: __ZNSt3__116__pad_and_outputB7v160006IcNS_11char_traitsIcEEEENS_19ostreambuf_iteratorIT_T0_EES6_PKS4_S8_S8_RNS_8ios_baseES4_, symObjAddr: 0x3810, symBinAddr: 0x100005ED0, symSize: 0x248 }
  - { offsetInCU: 0x7A05, offset: 0x7A05, size: 0x8, addend: 0x0, symName: __ZNSt3__19use_facetB7v160006INS_5ctypeIcEEEERKT_RKNS_6localeE, symObjAddr: 0x3DC8, symBinAddr: 0x100006488, symSize: 0x2C }
  - { offsetInCU: 0x80B2, offset: 0x80B2, size: 0x8, addend: 0x0, symName: __ZSt28__throw_bad_array_new_lengthB7v160006v, symObjAddr: 0x1A30, symBinAddr: 0x1000040F0, symSize: 0x34 }
  - { offsetInCU: 0x866C, offset: 0x866C, size: 0x8, addend: 0x0, symName: __ZNSt3__16vectorI4SongNS_9allocatorIS1_EEE26__swap_out_circular_bufferERNS_14__split_bufferIS1_RS3_EE, symObjAddr: 0x124C, symBinAddr: 0x10000390C, symSize: 0x118 }
  - { offsetInCU: 0xAA0B, offset: 0xAA0B, size: 0x8, addend: 0x0, symName: __ZN8PlaylistC2Ev, symObjAddr: 0x0, symBinAddr: 0x1000026C0, symSize: 0x70 }
  - { offsetInCU: 0xAA3B, offset: 0xAA3B, size: 0x8, addend: 0x0, symName: __ZNSt3__112basic_stringIcNS_11char_traitsIcEENS_9allocatorIcEEEC1B7v160006IDnEEPKc, symObjAddr: 0x70, symBinAddr: 0x100002730, symSize: 0x34 }
  - { offsetInCU: 0xAA78, offset: 0xAA78, size: 0x8, addend: 0x0, symName: __ZNSt3__16vectorI4SongNS_9allocatorIS1_EEEC1B7v160006Ev, symObjAddr: 0xA4, symBinAddr: 0x100002764, symSize: 0x2C }
  - { offsetInCU: 0xAAA1, offset: 0xAAA1, size: 0x8, addend: 0x0, symName: __ZN8PlaylistC1Ev, symObjAddr: 0xDC, symBinAddr: 0x10000279C, symSize: 0x2C }
  - { offsetInCU: 0xAACC, offset: 0xAACC, size: 0x8, addend: 0x0, symName: __ZN8PlaylistC2ENSt3__112basic_stringIcNS0_11char_traitsIcEENS0_9allocatorIcEEEE, symObjAddr: 0x108, symBinAddr: 0x1000027C8, symSize: 0x70 }
  - { offsetInCU: 0xAB06, offset: 0xAB06, size: 0x8, addend: 0x0, symName: __ZN8PlaylistC1ENSt3__112basic_stringIcNS0_11char_traitsIcEENS0_9allocatorIcEEEE, symObjAddr: 0x178, symBinAddr: 0x100002838, symSize: 0x34 }
  - { offsetInCU: 0xAB40, offset: 0xAB40, size: 0x8, addend: 0x0, symName: __ZN8Playlist7addSongERK4Song, symObjAddr: 0x1AC, symBinAddr: 0x10000286C, symSize: 0x30 }
  - { offsetInCU: 0xAB74, offset: 0xAB74, size: 0x8, addend: 0x0, symName: __ZNSt3__16vectorI4SongNS_9allocatorIS1_EEE9push_backB7v160006ERKS1_, symObjAddr: 0x1DC, symBinAddr: 0x10000289C, symSize: 0x6C }
  - { offsetInCU: 0xABAA, offset: 0xABAA, size: 0x8, addend: 0x0, symName: __ZN8Playlist10removeSongERKNSt3__112basic_stringIcNS0_11char_traitsIcEENS0_9allocatorIcEEEE, symObjAddr: 0x248, symBinAddr: 0x100002908, symSize: 0x150 }
  - { offsetInCU: 0xABFC, offset: 0xABFC, size: 0x8, addend: 0x0, symName: __ZNKSt3__16vectorI4SongNS_9allocatorIS1_EEE4sizeB7v160006Ev, symObjAddr: 0x398, symBinAddr: 0x100002A58, symSize: 0x28 }
  - { offsetInCU: 0xAC21, offset: 0xAC21, size: 0x8, addend: 0x0, symName: __ZNSt3__16vectorI4SongNS_9allocatorIS1_EEEixB7v160006Em, symObjAddr: 0x508, symBinAddr: 0x100002BC8, symSize: 0x2C }
  - { offsetInCU: 0xAC56, offset: 0xAC56, size: 0x8, addend: 0x0, symName: __ZNSt3__16vectorI4SongNS_9allocatorIS1_EEE5eraseB7v160006ENS_11__wrap_iterIPKS1_EE, symObjAddr: 0x534, symBinAddr: 0x100002BF4, symSize: 0xBC }
  - { offsetInCU: 0xACA9, offset: 0xACA9, size: 0x8, addend: 0x0, symName: __ZNSt3__16vectorI4SongNS_9allocatorIS1_EEE5beginB7v160006Ev, symObjAddr: 0x5F0, symBinAddr: 0x100002CB0, symSize: 0x30 }
  - { offsetInCU: 0xACD0, offset: 0xACD0, size: 0x8, addend: 0x0, symName: __ZNKSt3__111__wrap_iterIP4SongEplB7v160006El, symObjAddr: 0x620, symBinAddr: 0x100002CE0, symSize: 0x3C }
  - { offsetInCU: 0xAD1B, offset: 0xAD1B, size: 0x8, addend: 0x0, symName: __ZNSt3__111__wrap_iterIPK4SongEC1B7v160006IPS1_EERKNS0_IT_EEPNS_9enable_ifIXsr14is_convertibleIS7_S3_EE5valueEvE4typeE, symObjAddr: 0x65C, symBinAddr: 0x100002D1C, symSize: 0x3C }
  - { offsetInCU: 0xAD66, offset: 0xAD66, size: 0x8, addend: 0x0, symName: __ZNSt3__113basic_ostreamIcNS_11char_traitsIcEEElsB7v160006EPFRS3_S4_E, symObjAddr: 0x72C, symBinAddr: 0x100002DEC, symSize: 0x2C }
  - { offsetInCU: 0xAD99, offset: 0xAD99, size: 0x8, addend: 0x0, symName: __ZNK8Playlist9viewSongsEv, symObjAddr: 0x7B0, symBinAddr: 0x100002E70, symSize: 0x188 }
  - { offsetInCU: 0xADD4, offset: 0xADD4, size: 0x8, addend: 0x0, symName: __ZNKSt3__16vectorI4SongNS_9allocatorIS1_EEE5emptyB7v160006Ev, symObjAddr: 0x938, symBinAddr: 0x100002FF8, symSize: 0x28 }
  - { offsetInCU: 0xADF9, offset: 0xADF9, size: 0x8, addend: 0x0, symName: __ZNKSt3__16vectorI4SongNS_9allocatorIS1_EEEixB7v160006Em, symObjAddr: 0x960, symBinAddr: 0x100003020, symSize: 0x2C }
  - { offsetInCU: 0xAE2F, offset: 0xAE2F, size: 0x8, addend: 0x0, symName: __ZNK8Playlist8getTitleEv, symObjAddr: 0x98C, symBinAddr: 0x10000304C, symSize: 0x38 }
  - { offsetInCU: 0xAE56, offset: 0xAE56, size: 0x8, addend: 0x0, symName: __ZN8Playlist8setTitleERKNSt3__112basic_stringIcNS0_11char_traitsIcEENS0_9allocatorIcEEEE, symObjAddr: 0x9C4, symBinAddr: 0x100003084, symSize: 0x2C }
  - { offsetInCU: 0xAE8B, offset: 0xAE8B, size: 0x8, addend: 0x0, symName: __ZNSt3__112basic_stringIcNS_11char_traitsIcEENS_9allocatorIcEEEC2B7v160006IDnEEPKc, symObjAddr: 0x9F0, symBinAddr: 0x1000030B0, symSize: 0x60 }
  - { offsetInCU: 0xAECD, offset: 0xAECD, size: 0x8, addend: 0x0, symName: __ZNSt3__117__compressed_pairINS_12basic_stringIcNS_11char_traitsIcEENS_9allocatorIcEEE5__repES5_EC1B7v160006INS_18__default_init_tagESA_EEOT_OT0_, symObjAddr: 0xA50, symBinAddr: 0x100003110, symSize: 0x3C }
  - { offsetInCU: 0xAF24, offset: 0xAF24, size: 0x8, addend: 0x0, symName: __ZNSt3__111char_traitsIcE6lengthEPKc, symObjAddr: 0xA8C, symBinAddr: 0x10000314C, symSize: 0x48 }
  - { offsetInCU: 0xAF47, offset: 0xAF47, size: 0x8, addend: 0x0, symName: __ZNSt3__117__compressed_pairINS_12basic_stringIcNS_11char_traitsIcEENS_9allocatorIcEEE5__repES5_EC2B7v160006INS_18__default_init_tagESA_EEOT_OT0_, symObjAddr: 0xAE4, symBinAddr: 0x1000031A4, symSize: 0x3C }
  - { offsetInCU: 0xAF9E, offset: 0xAF9E, size: 0x8, addend: 0x0, symName: __ZNSt3__122__compressed_pair_elemINS_12basic_stringIcNS_11char_traitsIcEENS_9allocatorIcEEE5__repELi0ELb0EEC2B7v160006ENS_18__default_init_tagE, symObjAddr: 0xB20, symBinAddr: 0x1000031E0, symSize: 0x14 }
  - { offsetInCU: 0xAFD2, offset: 0xAFD2, size: 0x8, addend: 0x0, symName: __ZNSt3__122__compressed_pair_elemINS_9allocatorIcEELi1ELb1EEC2B7v160006ENS_18__default_init_tagE, symObjAddr: 0xB34, symBinAddr: 0x1000031F4, symSize: 0x2C }
  - { offsetInCU: 0xB006, offset: 0xB006, size: 0x8, addend: 0x0, symName: __ZNSt3__19allocatorIcEC2B7v160006Ev, symObjAddr: 0xB60, symBinAddr: 0x100003220, symSize: 0x2C }
  - { offsetInCU: 0xB02F, offset: 0xB02F, size: 0x8, addend: 0x0, symName: __ZNSt3__116__non_trivial_ifILb1ENS_9allocatorIcEEEC2B7v160006Ev, symObjAddr: 0xB8C, symBinAddr: 0x10000324C, symSize: 0x14 }
  - { offsetInCU: 0xB058, offset: 0xB058, size: 0x8, addend: 0x0, symName: __ZNSt3__16vectorI4SongNS_9allocatorIS1_EEEC2B7v160006Ev, symObjAddr: 0xBC4, symBinAddr: 0x100003284, symSize: 0x4C }
  - { offsetInCU: 0xB086, offset: 0xB086, size: 0x8, addend: 0x0, symName: __ZNSt3__117__compressed_pairIP4SongNS_9allocatorIS1_EEEC1B7v160006IDnNS_18__default_init_tagEEEOT_OT0_, symObjAddr: 0xC10, symBinAddr: 0x1000032D0, symSize: 0x3C }
  - { offsetInCU: 0xB0DD, offset: 0xB0DD, size: 0x8, addend: 0x0, symName: __ZNSt3__117__compressed_pairIP4SongNS_9allocatorIS1_EEEC2B7v160006IDnNS_18__default_init_tagEEEOT_OT0_, symObjAddr: 0xC5C, symBinAddr: 0x10000331C, symSize: 0x40 }
  - { offsetInCU: 0xB134, offset: 0xB134, size: 0x8, addend: 0x0, symName: __ZNSt3__122__compressed_pair_elemIP4SongLi0ELb0EEC2B7v160006IDnvEEOT_, symObjAddr: 0xC9C, symBinAddr: 0x10000335C, symSize: 0x1C }
  - { offsetInCU: 0xB175, offset: 0xB175, size: 0x8, addend: 0x0, symName: __ZNSt3__122__compressed_pair_elemINS_9allocatorI4SongEELi1ELb1EEC2B7v160006ENS_18__default_init_tagE, symObjAddr: 0xCB8, symBinAddr: 0x100003378, symSize: 0x2C }
  - { offsetInCU: 0xB1A9, offset: 0xB1A9, size: 0x8, addend: 0x0, symName: __ZNSt3__19allocatorI4SongEC2B7v160006Ev, symObjAddr: 0xCE4, symBinAddr: 0x1000033A4, symSize: 0x2C }
  - { offsetInCU: 0xB1D2, offset: 0xB1D2, size: 0x8, addend: 0x0, symName: __ZNSt3__116__non_trivial_ifILb1ENS_9allocatorI4SongEEEC2B7v160006Ev, symObjAddr: 0xD10, symBinAddr: 0x1000033D0, symSize: 0x14 }
  - { offsetInCU: 0xB1FB, offset: 0xB1FB, size: 0x8, addend: 0x0, symName: __ZNSt3__16vectorI4SongNS_9allocatorIS1_EEE9__end_capB7v160006Ev, symObjAddr: 0xD24, symBinAddr: 0x1000033E4, symSize: 0x28 }
  - { offsetInCU: 0xB220, offset: 0xB220, size: 0x8, addend: 0x0, symName: __ZNSt3__16vectorI4SongNS_9allocatorIS1_EEE22__construct_one_at_endB7v160006IJRKS1_EEEvDpOT_, symObjAddr: 0xD4C, symBinAddr: 0x10000340C, symSize: 0x98 }
  - { offsetInCU: 0xB26D, offset: 0xB26D, size: 0x8, addend: 0x0, symName: __ZNSt3__16vectorI4SongNS_9allocatorIS1_EEE21__push_back_slow_pathIRKS1_EEvOT_, symObjAddr: 0xDE4, symBinAddr: 0x1000034A4, symSize: 0xE0 }
  - { offsetInCU: 0xB2CA, offset: 0xB2CA, size: 0x8, addend: 0x0, symName: __ZNSt3__117__compressed_pairIP4SongNS_9allocatorIS1_EEE5firstB7v160006Ev, symObjAddr: 0xEC4, symBinAddr: 0x100003584, symSize: 0x24 }
  - { offsetInCU: 0xB2EF, offset: 0xB2EF, size: 0x8, addend: 0x0, symName: __ZNSt3__122__compressed_pair_elemIP4SongLi0ELb0EE5__getB7v160006Ev, symObjAddr: 0xEE8, symBinAddr: 0x1000035A8, symSize: 0x14 }
  - { offsetInCU: 0xB32D, offset: 0xB32D, size: 0x8, addend: 0x0, symName: __ZNSt3__16vectorI4SongNS_9allocatorIS1_EEE21_ConstructTransactionC1B7v160006ERS4_m, symObjAddr: 0xEFC, symBinAddr: 0x1000035BC, symSize: 0x3C }
  - { offsetInCU: 0xB374, offset: 0xB374, size: 0x8, addend: 0x0, symName: __ZNSt3__116allocator_traitsINS_9allocatorI4SongEEE9constructB7v160006IS2_JRKS2_EvEEvRS3_PT_DpOT0_, symObjAddr: 0xF38, symBinAddr: 0x1000035F8, symSize: 0x34 }
  - { offsetInCU: 0xB3CB, offset: 0xB3CB, size: 0x8, addend: 0x0, symName: __ZNSt3__16vectorI4SongNS_9allocatorIS1_EEE7__allocB7v160006Ev, symObjAddr: 0xF6C, symBinAddr: 0x10000362C, symSize: 0x28 }
  - { offsetInCU: 0xB3F0, offset: 0xB3F0, size: 0x8, addend: 0x0, symName: __ZNSt3__16vectorI4SongNS_9allocatorIS1_EEE21_ConstructTransactionD1B7v160006Ev, symObjAddr: 0xFA8, symBinAddr: 0x100003668, symSize: 0x2C }
  - { offsetInCU: 0xB419, offset: 0xB419, size: 0x8, addend: 0x0, symName: __ZNSt3__16vectorI4SongNS_9allocatorIS1_EEE21_ConstructTransactionC2B7v160006ERS4_m, symObjAddr: 0xFD4, symBinAddr: 0x100003694, symSize: 0x4C }
  - { offsetInCU: 0xB460, offset: 0xB460, size: 0x8, addend: 0x0, symName: __ZNSt3__19allocatorI4SongE9constructB7v160006IS1_JRKS1_EEEvPT_DpOT0_, symObjAddr: 0x1020, symBinAddr: 0x1000036E0, symSize: 0x30 }
  - { offsetInCU: 0xB4B5, offset: 0xB4B5, size: 0x8, addend: 0x0, symName: __ZN4SongC1ERKS_, symObjAddr: 0x1050, symBinAddr: 0x100003710, symSize: 0x34 }
  - { offsetInCU: 0xB4E9, offset: 0xB4E9, size: 0x8, addend: 0x0, symName: __ZN4SongC2ERKS_, symObjAddr: 0x1084, symBinAddr: 0x100003744, symSize: 0x78 }
  - { offsetInCU: 0xB51D, offset: 0xB51D, size: 0x8, addend: 0x0, symName: __ZNSt3__117__compressed_pairIP4SongNS_9allocatorIS1_EEE6secondB7v160006Ev, symObjAddr: 0x10FC, symBinAddr: 0x1000037BC, symSize: 0x24 }
  - { offsetInCU: 0xB542, offset: 0xB542, size: 0x8, addend: 0x0, symName: __ZNSt3__122__compressed_pair_elemINS_9allocatorI4SongEELi1ELb1EE5__getB7v160006Ev, symObjAddr: 0x1120, symBinAddr: 0x1000037E0, symSize: 0x14 }
  - { offsetInCU: 0xB567, offset: 0xB567, size: 0x8, addend: 0x0, symName: __ZNSt3__16vectorI4SongNS_9allocatorIS1_EEE21_ConstructTransactionD2B7v160006Ev, symObjAddr: 0x1134, symBinAddr: 0x1000037F4, symSize: 0x20 }
  - { offsetInCU: 0xB58F, offset: 0xB58F, size: 0x8, addend: 0x0, symName: __ZNKSt3__16vectorI4SongNS_9allocatorIS1_EEE11__recommendB7v160006Em, symObjAddr: 0x1154, symBinAddr: 0x100003814, symSize: 0xB4 }
  - { offsetInCU: 0xB5E3, offset: 0xB5E3, size: 0x8, addend: 0x0, symName: __ZNSt3__114__split_bufferI4SongRNS_9allocatorIS1_EEEC1EmmS4_, symObjAddr: 0x1208, symBinAddr: 0x1000038C8, symSize: 0x44 }
  - { offsetInCU: 0xB638, offset: 0xB638, size: 0x8, addend: 0x0, symName: __ZNSt3__114__split_bufferI4SongRNS_9allocatorIS1_EEED1Ev, symObjAddr: 0x1364, symBinAddr: 0x100003A24, symSize: 0x2C }
  - { offsetInCU: 0xB662, offset: 0xB662, size: 0x8, addend: 0x0, symName: __ZNKSt3__16vectorI4SongNS_9allocatorIS1_EEE8max_sizeEv, symObjAddr: 0x1390, symBinAddr: 0x100003A50, symSize: 0x74 }
  - { offsetInCU: 0xB689, offset: 0xB689, size: 0x8, addend: 0x0, symName: __ZNKSt3__16vectorI4SongNS_9allocatorIS1_EEE20__throw_length_errorB7v160006Ev, symObjAddr: 0x1404, symBinAddr: 0x100003AC4, symSize: 0x1C }
  - { offsetInCU: 0xB6AE, offset: 0xB6AE, size: 0x8, addend: 0x0, symName: __ZNKSt3__16vectorI4SongNS_9allocatorIS1_EEE8capacityB7v160006Ev, symObjAddr: 0x1420, symBinAddr: 0x100003AE0, symSize: 0x40 }
  - { offsetInCU: 0xB6DD, offset: 0xB6DD, size: 0x8, addend: 0x0, symName: __ZNSt3__116allocator_traitsINS_9allocatorI4SongEEE8max_sizeB7v160006IS3_vEEmRKS3_, symObjAddr: 0x14B8, symBinAddr: 0x100003B78, symSize: 0x24 }
  - { offsetInCU: 0xB70B, offset: 0xB70B, size: 0x8, addend: 0x0, symName: __ZNKSt3__16vectorI4SongNS_9allocatorIS1_EEE7__allocB7v160006Ev, symObjAddr: 0x14DC, symBinAddr: 0x100003B9C, symSize: 0x28 }
  - { offsetInCU: 0xB730, offset: 0xB730, size: 0x8, addend: 0x0, symName: __ZNSt3__114numeric_limitsIlE3maxB7v160006Ev, symObjAddr: 0x1504, symBinAddr: 0x100003BC4, symSize: 0x14 }
  - { offsetInCU: 0xB758, offset: 0xB758, size: 0x8, addend: 0x0, symName: __ZNKSt3__16__lessImmEclB7v160006ERKmS3_, symObjAddr: 0x156C, symBinAddr: 0x100003C2C, symSize: 0x34 }
  - { offsetInCU: 0xB799, offset: 0xB799, size: 0x8, addend: 0x0, symName: __ZNKSt3__19allocatorI4SongE8max_sizeB7v160006Ev, symObjAddr: 0x15A0, symBinAddr: 0x100003C60, symSize: 0x18 }
  - { offsetInCU: 0xB7BE, offset: 0xB7BE, size: 0x8, addend: 0x0, symName: __ZNKSt3__117__compressed_pairIP4SongNS_9allocatorIS1_EEE6secondB7v160006Ev, symObjAddr: 0x15B8, symBinAddr: 0x100003C78, symSize: 0x24 }
  - { offsetInCU: 0xB7E3, offset: 0xB7E3, size: 0x8, addend: 0x0, symName: __ZNKSt3__122__compressed_pair_elemINS_9allocatorI4SongEELi1ELb1EE5__getB7v160006Ev, symObjAddr: 0x15DC, symBinAddr: 0x100003C9C, symSize: 0x14 }
  - { offsetInCU: 0xB808, offset: 0xB808, size: 0x8, addend: 0x0, symName: __ZNSt3__123__libcpp_numeric_limitsIlLb1EE3maxB7v160006Ev, symObjAddr: 0x15F0, symBinAddr: 0x100003CB0, symSize: 0x8 }
  - { offsetInCU: 0xB81C, offset: 0xB81C, size: 0x8, addend: 0x0, symName: __ZNSt12length_errorC1B7v160006EPKc, symObjAddr: 0x165C, symBinAddr: 0x100003D1C, symSize: 0x34 }
  - { offsetInCU: 0xB853, offset: 0xB853, size: 0x8, addend: 0x0, symName: __ZNSt12length_errorC2B7v160006EPKc, symObjAddr: 0x1690, symBinAddr: 0x100003D50, symSize: 0x4C }
  - { offsetInCU: 0xB88A, offset: 0xB88A, size: 0x8, addend: 0x0, symName: __ZNKSt3__16vectorI4SongNS_9allocatorIS1_EEE9__end_capB7v160006Ev, symObjAddr: 0x16DC, symBinAddr: 0x100003D9C, symSize: 0x28 }
  - { offsetInCU: 0xB8AF, offset: 0xB8AF, size: 0x8, addend: 0x0, symName: __ZNKSt3__117__compressed_pairIP4SongNS_9allocatorIS1_EEE5firstB7v160006Ev, symObjAddr: 0x1704, symBinAddr: 0x100003DC4, symSize: 0x24 }
  - { offsetInCU: 0xB8D4, offset: 0xB8D4, size: 0x8, addend: 0x0, symName: __ZNKSt3__122__compressed_pair_elemIP4SongLi0ELb0EE5__getB7v160006Ev, symObjAddr: 0x1728, symBinAddr: 0x100003DE8, symSize: 0x14 }
  - { offsetInCU: 0xB8F9, offset: 0xB8F9, size: 0x8, addend: 0x0, symName: __ZNSt3__114__split_bufferI4SongRNS_9allocatorIS1_EEEC2EmmS4_, symObjAddr: 0x1790, symBinAddr: 0x100003E50, symSize: 0xE0 }
  - { offsetInCU: 0xB96C, offset: 0xB96C, size: 0x8, addend: 0x0, symName: __ZNSt3__117__compressed_pairIP4SongRNS_9allocatorIS1_EEEC1B7v160006IDnS5_EEOT_OT0_, symObjAddr: 0x1870, symBinAddr: 0x100003F30, symSize: 0x3C }
  - { offsetInCU: 0xB9C3, offset: 0xB9C3, size: 0x8, addend: 0x0, symName: __ZNSt3__114__split_bufferI4SongRNS_9allocatorIS1_EEE7__allocB7v160006Ev, symObjAddr: 0x18EC, symBinAddr: 0x100003FAC, symSize: 0x28 }
  - { offsetInCU: 0xB9E8, offset: 0xB9E8, size: 0x8, addend: 0x0, symName: __ZNSt3__114__split_bufferI4SongRNS_9allocatorIS1_EEE9__end_capB7v160006Ev, symObjAddr: 0x1914, symBinAddr: 0x100003FD4, symSize: 0x28 }
  - { offsetInCU: 0xBA0D, offset: 0xBA0D, size: 0x8, addend: 0x0, symName: __ZNSt3__117__compressed_pairIP4SongRNS_9allocatorIS1_EEEC2B7v160006IDnS5_EEOT_OT0_, symObjAddr: 0x193C, symBinAddr: 0x100003FFC, symSize: 0x48 }
  - { offsetInCU: 0xBA64, offset: 0xBA64, size: 0x8, addend: 0x0, symName: __ZNSt3__122__compressed_pair_elemIRNS_9allocatorI4SongEELi1ELb0EEC2B7v160006IS4_vEEOT_, symObjAddr: 0x1984, symBinAddr: 0x100004044, symSize: 0x20 }
  - { offsetInCU: 0xBAA5, offset: 0xBAA5, size: 0x8, addend: 0x0, symName: __ZNSt3__19allocatorI4SongE8allocateB7v160006Em, symObjAddr: 0x19A4, symBinAddr: 0x100004064, symSize: 0x8C }
  - { offsetInCU: 0xBAD8, offset: 0xBAD8, size: 0x8, addend: 0x0, symName: __ZNSt3__117__compressed_pairIP4SongRNS_9allocatorIS1_EEE6secondB7v160006Ev, symObjAddr: 0x1ABC, symBinAddr: 0x10000417C, symSize: 0x28 }
  - { offsetInCU: 0xBAFD, offset: 0xBAFD, size: 0x8, addend: 0x0, symName: __ZNSt3__122__compressed_pair_elemIRNS_9allocatorI4SongEELi1ELb0EE5__getB7v160006Ev, symObjAddr: 0x1AE4, symBinAddr: 0x1000041A4, symSize: 0x18 }
  - { offsetInCU: 0xBB22, offset: 0xBB22, size: 0x8, addend: 0x0, symName: __ZNSt3__117__compressed_pairIP4SongRNS_9allocatorIS1_EEE5firstB7v160006Ev, symObjAddr: 0x1AFC, symBinAddr: 0x1000041BC, symSize: 0x24 }
  - { offsetInCU: 0xBB47, offset: 0xBB47, size: 0x8, addend: 0x0, symName: __ZNKSt3__16vectorI4SongNS_9allocatorIS1_EEE17__annotate_deleteB7v160006Ev, symObjAddr: 0x1B20, symBinAddr: 0x1000041E0, symSize: 0xD4 }
  - { offsetInCU: 0xBB6C, offset: 0xBB6C, size: 0x8, addend: 0x0, symName: __ZNSt3__116reverse_iteratorIP4SongEC1B7v160006ES2_, symObjAddr: 0x1D28, symBinAddr: 0x1000043E8, symSize: 0x34 }
  - { offsetInCU: 0xBBA3, offset: 0xBBA3, size: 0x8, addend: 0x0, symName: __ZNKSt3__116reverse_iteratorIP4SongE4baseB7v160006Ev, symObjAddr: 0x1D5C, symBinAddr: 0x10000441C, symSize: 0x18 }
  - { offsetInCU: 0xBBC8, offset: 0xBBC8, size: 0x8, addend: 0x0, symName: __ZNKSt3__16vectorI4SongNS_9allocatorIS1_EEE14__annotate_newB7v160006Em, symObjAddr: 0x1DB0, symBinAddr: 0x100004470, symSize: 0xC8 }
  - { offsetInCU: 0xBBFC, offset: 0xBBFC, size: 0x8, addend: 0x0, symName: __ZNKSt3__16vectorI4SongNS_9allocatorIS1_EEE31__annotate_contiguous_containerB7v160006EPKvS6_S6_S6_, symObjAddr: 0x1E88, symBinAddr: 0x100004548, symSize: 0x20 }
  - { offsetInCU: 0xBC51, offset: 0xBC51, size: 0x8, addend: 0x0, symName: __ZNKSt3__16vectorI4SongNS_9allocatorIS1_EEE4dataB7v160006Ev, symObjAddr: 0x1EA8, symBinAddr: 0x100004568, symSize: 0x28 }
  - { offsetInCU: 0xBC76, offset: 0xBC76, size: 0x8, addend: 0x0, symName: __ZNSt3__129_AllocatorDestroyRangeReverseINS_9allocatorI4SongEENS_16reverse_iteratorIPS2_EEEC1B7v160006ERS3_RS6_S9_, symObjAddr: 0x1F1C, symBinAddr: 0x1000045DC, symSize: 0x44 }
  - { offsetInCU: 0xBCCC, offset: 0xBCCC, size: 0x8, addend: 0x0, symName: __ZNKSt3__116reverse_iteratorIP4SongEdeB7v160006Ev, symObjAddr: 0x1FCC, symBinAddr: 0x10000468C, symSize: 0x28 }
  - { offsetInCU: 0xBCFF, offset: 0xBCFF, size: 0x8, addend: 0x0, symName: __ZNSt3__116reverse_iteratorIP4SongEppB7v160006Ev, symObjAddr: 0x1FF4, symBinAddr: 0x1000046B4, symSize: 0x20 }
  - { offsetInCU: 0xBD24, offset: 0xBD24, size: 0x8, addend: 0x0, symName: __ZNSt3__128__exception_guard_exceptionsINS_29_AllocatorDestroyRangeReverseINS_9allocatorI4SongEENS_16reverse_iteratorIPS3_EEEEE10__completeB7v160006Ev, symObjAddr: 0x2014, symBinAddr: 0x1000046D4, symSize: 0x1C }
  - { offsetInCU: 0xBD49, offset: 0xBD49, size: 0x8, addend: 0x0, symName: __ZNSt3__128__exception_guard_exceptionsINS_29_AllocatorDestroyRangeReverseINS_9allocatorI4SongEENS_16reverse_iteratorIPS3_EEEEED1B7v160006Ev, symObjAddr: 0x2030, symBinAddr: 0x1000046F0, symSize: 0x2C }
  - { offsetInCU: 0xBD72, offset: 0xBD72, size: 0x8, addend: 0x0, symName: __ZNSt3__128__exception_guard_exceptionsINS_29_AllocatorDestroyRangeReverseINS_9allocatorI4SongEENS_16reverse_iteratorIPS3_EEEEEC1B7v160006ES8_, symObjAddr: 0x205C, symBinAddr: 0x10000471C, symSize: 0x34 }
  - { offsetInCU: 0xBDAA, offset: 0xBDAA, size: 0x8, addend: 0x0, symName: __ZNSt3__128__exception_guard_exceptionsINS_29_AllocatorDestroyRangeReverseINS_9allocatorI4SongEENS_16reverse_iteratorIPS3_EEEEEC2B7v160006ES8_, symObjAddr: 0x2090, symBinAddr: 0x100004750, symSize: 0x30 }
  - { offsetInCU: 0xBDE2, offset: 0xBDE2, size: 0x8, addend: 0x0, symName: __ZNSt3__129_AllocatorDestroyRangeReverseINS_9allocatorI4SongEENS_16reverse_iteratorIPS2_EEEC2B7v160006ERS3_RS6_S9_, symObjAddr: 0x20C0, symBinAddr: 0x100004780, symSize: 0x38 }
  - { offsetInCU: 0xBE3D, offset: 0xBE3D, size: 0x8, addend: 0x0, symName: __ZNSt3__119__to_address_helperINS_16reverse_iteratorIP4SongEEvE6__callB7v160006ERKS4_, symObjAddr: 0x20F8, symBinAddr: 0x1000047B8, symSize: 0x4C }
  - { offsetInCU: 0xBE60, offset: 0xBE60, size: 0x8, addend: 0x0, symName: __ZNKSt3__116reverse_iteratorIP4SongEptB7v160006Ev, symObjAddr: 0x2144, symBinAddr: 0x100004804, symSize: 0x24 }
  - { offsetInCU: 0xBE85, offset: 0xBE85, size: 0x8, addend: 0x0, symName: __ZNSt3__128__exception_guard_exceptionsINS_29_AllocatorDestroyRangeReverseINS_9allocatorI4SongEENS_16reverse_iteratorIPS3_EEEEED2B7v160006Ev, symObjAddr: 0x2168, symBinAddr: 0x100004828, symSize: 0x48 }
  - { offsetInCU: 0xBEAE, offset: 0xBEAE, size: 0x8, addend: 0x0, symName: __ZNKSt3__129_AllocatorDestroyRangeReverseINS_9allocatorI4SongEENS_16reverse_iteratorIPS2_EEEclB7v160006Ev, symObjAddr: 0x21B0, symBinAddr: 0x100004870, symSize: 0xB4 }
  - { offsetInCU: 0xBED4, offset: 0xBED4, size: 0x8, addend: 0x0, symName: __ZNSt3__116reverse_iteratorINS0_IP4SongEEEC1B7v160006ES3_, symObjAddr: 0x22D4, symBinAddr: 0x100004994, symSize: 0x3C }
  - { offsetInCU: 0xBF0B, offset: 0xBF0B, size: 0x8, addend: 0x0, symName: __ZNSt3__116allocator_traitsINS_9allocatorI4SongEEE7destroyB7v160006IS2_vEEvRS3_PT_, symObjAddr: 0x2370, symBinAddr: 0x100004A30, symSize: 0x2C }
  - { offsetInCU: 0xBF48, offset: 0xBF48, size: 0x8, addend: 0x0, symName: __ZNSt3__116reverse_iteratorINS0_IP4SongEEEppB7v160006Ev, symObjAddr: 0x23C0, symBinAddr: 0x100004A80, symSize: 0x30 }
  - { offsetInCU: 0xBF6D, offset: 0xBF6D, size: 0x8, addend: 0x0, symName: __ZNKSt3__116reverse_iteratorINS0_IP4SongEEE4baseB7v160006Ev, symObjAddr: 0x23F0, symBinAddr: 0x100004AB0, symSize: 0x24 }
  - { offsetInCU: 0xBF92, offset: 0xBF92, size: 0x8, addend: 0x0, symName: __ZNSt3__19allocatorI4SongE7destroyB7v160006EPS1_, symObjAddr: 0x2414, symBinAddr: 0x100004AD4, symSize: 0x28 }
  - { offsetInCU: 0xBFC5, offset: 0xBFC5, size: 0x8, addend: 0x0, symName: __ZN4SongD1Ev, symObjAddr: 0x243C, symBinAddr: 0x100004AFC, symSize: 0x2C }
  - { offsetInCU: 0xBFF0, offset: 0xBFF0, size: 0x8, addend: 0x0, symName: __ZN4SongD2Ev, symObjAddr: 0x2468, symBinAddr: 0x100004B28, symSize: 0x68 }
  - { offsetInCU: 0xC020, offset: 0xC020, size: 0x8, addend: 0x0, symName: __ZNSt3__119__to_address_helperINS_16reverse_iteratorINS1_IP4SongEEEEvE6__callB7v160006ERKS5_, symObjAddr: 0x24D0, symBinAddr: 0x100004B90, symSize: 0x4C }
  - { offsetInCU: 0xC043, offset: 0xC043, size: 0x8, addend: 0x0, symName: __ZNKSt3__116reverse_iteratorINS0_IP4SongEEEptB7v160006Ev, symObjAddr: 0x251C, symBinAddr: 0x100004BDC, symSize: 0x24 }
  - { offsetInCU: 0xC068, offset: 0xC068, size: 0x8, addend: 0x0, symName: __ZNKSt3__116reverse_iteratorINS0_IP4SongEEEdeB7v160006Ev, symObjAddr: 0x2540, symBinAddr: 0x100004C00, symSize: 0x34 }
  - { offsetInCU: 0xC09B, offset: 0xC09B, size: 0x8, addend: 0x0, symName: __ZNSt3__116reverse_iteratorIP4SongEmmB7v160006Ev, symObjAddr: 0x2574, symBinAddr: 0x100004C34, symSize: 0x20 }
  - { offsetInCU: 0xC0C0, offset: 0xC0C0, size: 0x8, addend: 0x0, symName: __ZNSt3__116reverse_iteratorINS0_IP4SongEEEC2B7v160006ES3_, symObjAddr: 0x2594, symBinAddr: 0x100004C54, symSize: 0x2C }
  - { offsetInCU: 0xC0F7, offset: 0xC0F7, size: 0x8, addend: 0x0, symName: __ZNSt3__116reverse_iteratorIP4SongEC2B7v160006ES2_, symObjAddr: 0x25C0, symBinAddr: 0x100004C80, symSize: 0x28 }
  - { offsetInCU: 0xC12E, offset: 0xC12E, size: 0x8, addend: 0x0, symName: __ZNSt3__114__split_bufferI4SongRNS_9allocatorIS1_EEED2Ev, symObjAddr: 0x25E8, symBinAddr: 0x100004CA8, symSize: 0x80 }
  - { offsetInCU: 0xC159, offset: 0xC159, size: 0x8, addend: 0x0, symName: __ZNSt3__114__split_bufferI4SongRNS_9allocatorIS1_EEE5clearB7v160006Ev, symObjAddr: 0x2668, symBinAddr: 0x100004D28, symSize: 0x28 }
  - { offsetInCU: 0xC17E, offset: 0xC17E, size: 0x8, addend: 0x0, symName: __ZNSt3__116allocator_traitsINS_9allocatorI4SongEEE10deallocateB7v160006ERS3_PS2_m, symObjAddr: 0x2690, symBinAddr: 0x100004D50, symSize: 0x34 }
  - { offsetInCU: 0xC1C0, offset: 0xC1C0, size: 0x8, addend: 0x0, symName: __ZNKSt3__114__split_bufferI4SongRNS_9allocatorIS1_EEE8capacityB7v160006Ev, symObjAddr: 0x26C4, symBinAddr: 0x100004D84, symSize: 0x40 }
  - { offsetInCU: 0xC1E5, offset: 0xC1E5, size: 0x8, addend: 0x0, symName: __ZNSt3__114__split_bufferI4SongRNS_9allocatorIS1_EEE17__destruct_at_endB7v160006EPS1_, symObjAddr: 0x2704, symBinAddr: 0x100004DC4, symSize: 0x2C }
  - { offsetInCU: 0xC217, offset: 0xC217, size: 0x8, addend: 0x0, symName: __ZNSt3__114__split_bufferI4SongRNS_9allocatorIS1_EEE17__destruct_at_endB7v160006EPS1_NS_17integral_constantIbLb0EEE, symObjAddr: 0x2730, symBinAddr: 0x100004DF0, symSize: 0x94 }
  - { offsetInCU: 0xC257, offset: 0xC257, size: 0x8, addend: 0x0, symName: __ZNSt3__19allocatorI4SongE10deallocateB7v160006EPS1_m, symObjAddr: 0x27C4, symBinAddr: 0x100004E84, symSize: 0x74 }
  - { offsetInCU: 0xC298, offset: 0xC298, size: 0x8, addend: 0x0, symName: __ZNKSt3__114__split_bufferI4SongRNS_9allocatorIS1_EEE9__end_capB7v160006Ev, symObjAddr: 0x28B4, symBinAddr: 0x100004F74, symSize: 0x28 }
  - { offsetInCU: 0xC2BD, offset: 0xC2BD, size: 0x8, addend: 0x0, symName: __ZNKSt3__117__compressed_pairIP4SongRNS_9allocatorIS1_EEE5firstB7v160006Ev, symObjAddr: 0x28DC, symBinAddr: 0x100004F9C, symSize: 0x24 }
  - { offsetInCU: 0xC2E2, offset: 0xC2E2, size: 0x8, addend: 0x0, symName: __ZNKSt3__112basic_stringIcNS_11char_traitsIcEENS_9allocatorIcEEE4sizeB7v160006Ev, symObjAddr: 0x2900, symBinAddr: 0x100004FC0, symSize: 0x54 }
  - { offsetInCU: 0xC307, offset: 0xC307, size: 0x8, addend: 0x0, symName: __ZNKSt3__112basic_stringIcNS_11char_traitsIcEENS_9allocatorIcEEE4dataB7v160006Ev, symObjAddr: 0x2954, symBinAddr: 0x100005014, symSize: 0x28 }
  - { offsetInCU: 0xC32C, offset: 0xC32C, size: 0x8, addend: 0x0, symName: __ZNKSt3__112basic_stringIcNS_11char_traitsIcEENS_9allocatorIcEEE9__is_longB7v160006Ev, symObjAddr: 0x297C, symBinAddr: 0x10000503C, symSize: 0x74 }
  - { offsetInCU: 0xC351, offset: 0xC351, size: 0x8, addend: 0x0, symName: __ZNSt3__111char_traitsIcE7compareEPKcS3_m, symObjAddr: 0x29F0, symBinAddr: 0x1000050B0, symSize: 0x80 }
  - { offsetInCU: 0xC390, offset: 0xC390, size: 0x8, addend: 0x0, symName: __ZNKSt3__112basic_stringIcNS_11char_traitsIcEENS_9allocatorIcEEE15__get_long_sizeB7v160006Ev, symObjAddr: 0x2A70, symBinAddr: 0x100005130, symSize: 0x28 }
  - { offsetInCU: 0xC3B5, offset: 0xC3B5, size: 0x8, addend: 0x0, symName: __ZNKSt3__112basic_stringIcNS_11char_traitsIcEENS_9allocatorIcEEE16__get_short_sizeB7v160006Ev, symObjAddr: 0x2A98, symBinAddr: 0x100005158, symSize: 0x34 }
  - { offsetInCU: 0xC3DA, offset: 0xC3DA, size: 0x8, addend: 0x0, symName: __ZNKSt3__117__compressed_pairINS_12basic_stringIcNS_11char_traitsIcEENS_9allocatorIcEEE5__repES5_E5firstB7v160006Ev, symObjAddr: 0x2ACC, symBinAddr: 0x10000518C, symSize: 0x24 }
  - { offsetInCU: 0xC3FF, offset: 0xC3FF, size: 0x8, addend: 0x0, symName: __ZNKSt3__122__compressed_pair_elemINS_12basic_stringIcNS_11char_traitsIcEENS_9allocatorIcEEE5__repELi0ELb0EE5__getB7v160006Ev, symObjAddr: 0x2AF0, symBinAddr: 0x1000051B0, symSize: 0x14 }
  - { offsetInCU: 0xC424, offset: 0xC424, size: 0x8, addend: 0x0, symName: __ZNKSt3__112basic_stringIcNS_11char_traitsIcEENS_9allocatorIcEEE13__get_pointerB7v160006Ev, symObjAddr: 0x2B18, symBinAddr: 0x1000051D8, symSize: 0x54 }
  - { offsetInCU: 0xC449, offset: 0xC449, size: 0x8, addend: 0x0, symName: __ZNKSt3__112basic_stringIcNS_11char_traitsIcEENS_9allocatorIcEEE18__get_long_pointerB7v160006Ev, symObjAddr: 0x2B6C, symBinAddr: 0x10000522C, symSize: 0x28 }
  - { offsetInCU: 0xC46E, offset: 0xC46E, size: 0x8, addend: 0x0, symName: __ZNKSt3__112basic_stringIcNS_11char_traitsIcEENS_9allocatorIcEEE19__get_short_pointerB7v160006Ev, symObjAddr: 0x2B94, symBinAddr: 0x100005254, symSize: 0x28 }
  - { offsetInCU: 0xC493, offset: 0xC493, size: 0x8, addend: 0x0, symName: __ZNSt3__114pointer_traitsIPKcE10pointer_toB7v160006ERS1_, symObjAddr: 0x2BBC, symBinAddr: 0x10000527C, symSize: 0x14 }
  - { offsetInCU: 0xC4B6, offset: 0xC4B6, size: 0x8, addend: 0x0, symName: __ZNSt3__16vectorI4SongNS_9allocatorIS1_EEE11__make_iterB7v160006EPS1_, symObjAddr: 0x2C04, symBinAddr: 0x1000052C4, symSize: 0x34 }
  - { offsetInCU: 0xC4EA, offset: 0xC4EA, size: 0x8, addend: 0x0, symName: __ZNSt3__111__wrap_iterIP4SongEC1B7v160006EPKvS2_, symObjAddr: 0x2C38, symBinAddr: 0x1000052F8, symSize: 0x3C }
  - { offsetInCU: 0xC52F, offset: 0xC52F, size: 0x8, addend: 0x0, symName: __ZNSt3__111__wrap_iterIP4SongEC2B7v160006EPKvS2_, symObjAddr: 0x2C74, symBinAddr: 0x100005334, symSize: 0x24 }
  - { offsetInCU: 0xC574, offset: 0xC574, size: 0x8, addend: 0x0, symName: __ZNSt3__111__wrap_iterIP4SongEpLB7v160006El, symObjAddr: 0x2C98, symBinAddr: 0x100005358, symSize: 0x30 }
  - { offsetInCU: 0xC5A7, offset: 0xC5A7, size: 0x8, addend: 0x0, symName: __ZNKSt3__16vectorI4SongNS_9allocatorIS1_EEE6cbeginB7v160006Ev, symObjAddr: 0x2D10, symBinAddr: 0x1000053D0, symSize: 0x2C }
  - { offsetInCU: 0xC5CC, offset: 0xC5CC, size: 0x8, addend: 0x0, symName: __ZNSt3__16vectorI4SongNS_9allocatorIS1_EEE17__destruct_at_endB7v160006EPS1_, symObjAddr: 0x2D3C, symBinAddr: 0x1000053FC, symSize: 0x88 }
  - { offsetInCU: 0xC60F, offset: 0xC60F, size: 0x8, addend: 0x0, symName: __ZNSt3__16vectorI4SongNS_9allocatorIS1_EEE27__invalidate_iterators_pastB7v160006EPS1_, symObjAddr: 0x2E04, symBinAddr: 0x1000054C4, symSize: 0x14 }
  - { offsetInCU: 0xC645, offset: 0xC645, size: 0x8, addend: 0x0, symName: __ZNKSt3__111__wrap_iterIPK4SongE4baseB7v160006Ev, symObjAddr: 0x2E18, symBinAddr: 0x1000054D8, symSize: 0x18 }
  - { offsetInCU: 0xC669, offset: 0xC669, size: 0x8, addend: 0x0, symName: __ZNKSt3__16vectorI4SongNS_9allocatorIS1_EEE5beginB7v160006Ev, symObjAddr: 0x2E30, symBinAddr: 0x1000054F0, symSize: 0x30 }
  - { offsetInCU: 0xC690, offset: 0xC690, size: 0x8, addend: 0x0, symName: __ZNKSt3__16vectorI4SongNS_9allocatorIS1_EEE11__make_iterB7v160006EPKS1_, symObjAddr: 0x2E60, symBinAddr: 0x100005520, symSize: 0x34 }
  - { offsetInCU: 0xC6C4, offset: 0xC6C4, size: 0x8, addend: 0x0, symName: __ZNSt3__111__wrap_iterIPK4SongEC1B7v160006EPKvS3_, symObjAddr: 0x2E94, symBinAddr: 0x100005554, symSize: 0x3C }
  - { offsetInCU: 0xC709, offset: 0xC709, size: 0x8, addend: 0x0, symName: __ZNSt3__111__wrap_iterIPK4SongEC2B7v160006EPKvS3_, symObjAddr: 0x2ED0, symBinAddr: 0x100005590, symSize: 0x24 }
  - { offsetInCU: 0xC74E, offset: 0xC74E, size: 0x8, addend: 0x0, symName: __ZNSt3__16vectorI4SongNS_9allocatorIS1_EEE22__base_destruct_at_endB7v160006EPS1_, symObjAddr: 0x2EF4, symBinAddr: 0x1000055B4, symSize: 0xA0 }
  - { offsetInCU: 0xC791, offset: 0xC791, size: 0x8, addend: 0x0, symName: __ZNKSt3__16vectorI4SongNS_9allocatorIS1_EEE17__annotate_shrinkB7v160006Em, symObjAddr: 0x2F94, symBinAddr: 0x100005654, symSize: 0xD0 }
  - { offsetInCU: 0xC7E8, offset: 0xC7E8, size: 0x8, addend: 0x0, symName: __ZNKSt3__111__move_loopINS_17_ClassicAlgPolicyEEclB7v160006IP4SongS5_S5_EENS_4pairIT_T1_EES7_T0_S8_, symObjAddr: 0x32E0, symBinAddr: 0x1000059A0, symSize: 0x90 }
  - { offsetInCU: 0xC857, offset: 0xC857, size: 0x8, addend: 0x0, symName: __ZNSt3__18_IterOpsINS_17_ClassicAlgPolicyEE11__iter_moveB7v160006IRP4SongEENS_9enable_ifIXsr12is_referenceIDTdeclsr3stdE7declvalIRT_EEEEE5valueEDTclsr3stdE4movedeclsr3stdE7declvalIS9_EEEEE4typeEOS8_, symObjAddr: 0x3448, symBinAddr: 0x100005B08, symSize: 0x28 }
  - { offsetInCU: 0xC883, offset: 0xC883, size: 0x8, addend: 0x0, symName: __ZN4SongaSERKS_, symObjAddr: 0x3470, symBinAddr: 0x100005B30, symSize: 0x48 }
  - { offsetInCU: 0xC8B3, offset: 0xC8B3, size: 0x8, addend: 0x0, symName: __ZNSt3__18_IterOpsINS_17_ClassicAlgPolicyEE25__validate_iter_referenceB7v160006IRP4SongEEvv, symObjAddr: 0x34B8, symBinAddr: 0x100005B78, symSize: 0x4 }
  - { offsetInCU: 0xC8D1, offset: 0xC8D1, size: 0x8, addend: 0x0, symName: __ZNSt3__118__unwrap_iter_implIP4SongLb1EE8__unwrapB7v160006ES2_, symObjAddr: 0x34BC, symBinAddr: 0x100005B7C, symSize: 0x24 }
  - { offsetInCU: 0xC8F4, offset: 0xC8F4, size: 0x8, addend: 0x0, symName: __ZNSt3__14pairIP4SongS2_EC1B7v160006ERKS2_S5_, symObjAddr: 0x34E0, symBinAddr: 0x100005BA0, symSize: 0x3C }
  - { offsetInCU: 0xC939, offset: 0xC939, size: 0x8, addend: 0x0, symName: __ZNSt3__14pairIP4SongS2_EC2B7v160006ERKS2_S5_, symObjAddr: 0x351C, symBinAddr: 0x100005BDC, symSize: 0x34 }
  - { offsetInCU: 0xC97E, offset: 0xC97E, size: 0x8, addend: 0x0, symName: __ZNSt3__118__unwrap_iter_implIP4SongLb1EE8__rewrapB7v160006ES2_S2_, symObjAddr: 0x3550, symBinAddr: 0x100005C10, symSize: 0x58 }
  - { offsetInCU: 0xC9AF, offset: 0xC9AF, size: 0x8, addend: 0x0, symName: __ZNSt3__111__wrap_iterIPK4SongEC2B7v160006IPS1_EERKNS0_IT_EEPNS_9enable_ifIXsr14is_convertibleIS7_S3_EE5valueEvE4typeE, symObjAddr: 0x35A8, symBinAddr: 0x100005C68, symSize: 0x40 }
  - { offsetInCU: 0xC9FA, offset: 0xC9FA, size: 0x8, addend: 0x0, symName: __ZNKSt3__111__wrap_iterIP4SongE4baseB7v160006Ev, symObjAddr: 0x35E8, symBinAddr: 0x100005CA8, symSize: 0x18 }
  - { offsetInCU: 0xCA3D, offset: 0xCA3D, size: 0x8, addend: 0x0, symName: __ZNKSt3__113basic_ostreamIcNS_11char_traitsIcEEE6sentrycvbB7v160006Ev, symObjAddr: 0x37F4, symBinAddr: 0x100005EB4, symSize: 0x1C }
  - { offsetInCU: 0xCA62, offset: 0xCA62, size: 0x8, addend: 0x0, symName: __ZNSt3__119ostreambuf_iteratorIcNS_11char_traitsIcEEEC1B7v160006ERNS_13basic_ostreamIcS2_EE, symObjAddr: 0x3A58, symBinAddr: 0x100006118, symSize: 0x34 }
  - { offsetInCU: 0xCA99, offset: 0xCA99, size: 0x8, addend: 0x0, symName: __ZNKSt3__18ios_base5flagsB7v160006Ev, symObjAddr: 0x3A8C, symBinAddr: 0x10000614C, symSize: 0x18 }
  - { offsetInCU: 0xCABF, offset: 0xCABF, size: 0x8, addend: 0x0, symName: __ZNKSt3__19basic_iosIcNS_11char_traitsIcEEE4fillB7v160006Ev, symObjAddr: 0x3AA4, symBinAddr: 0x100006164, symSize: 0x64 }
  - { offsetInCU: 0xCAE6, offset: 0xCAE6, size: 0x8, addend: 0x0, symName: __ZNKSt3__119ostreambuf_iteratorIcNS_11char_traitsIcEEE6failedB7v160006Ev, symObjAddr: 0x3B08, symBinAddr: 0x1000061C8, symSize: 0x24 }
  - { offsetInCU: 0xCB0B, offset: 0xCB0B, size: 0x8, addend: 0x0, symName: __ZNSt3__19basic_iosIcNS_11char_traitsIcEEE8setstateB7v160006Ej, symObjAddr: 0x3B2C, symBinAddr: 0x1000061EC, symSize: 0x2C }
  - { offsetInCU: 0xCB3F, offset: 0xCB3F, size: 0x8, addend: 0x0, symName: __ZNKSt3__18ios_base5widthB7v160006Ev, symObjAddr: 0x3B58, symBinAddr: 0x100006218, symSize: 0x18 }
  - { offsetInCU: 0xCB66, offset: 0xCB66, size: 0x8, addend: 0x0, symName: __ZNSt3__115basic_streambufIcNS_11char_traitsIcEEE5sputnB7v160006EPKcl, symObjAddr: 0x3B70, symBinAddr: 0x100006230, symSize: 0x3C }
  - { offsetInCU: 0xCBA7, offset: 0xCBA7, size: 0x8, addend: 0x0, symName: __ZNSt3__112basic_stringIcNS_11char_traitsIcEENS_9allocatorIcEEEC1B7v160006Emc, symObjAddr: 0x3BAC, symBinAddr: 0x10000626C, symSize: 0x3C }
  - { offsetInCU: 0xCBEE, offset: 0xCBEE, size: 0x8, addend: 0x0, symName: __ZNSt3__18ios_base5widthB7v160006El, symObjAddr: 0x3BE8, symBinAddr: 0x1000062A8, symSize: 0x2C }
  - { offsetInCU: 0xCC33, offset: 0xCC33, size: 0x8, addend: 0x0, symName: __ZNSt3__112basic_stringIcNS_11char_traitsIcEENS_9allocatorIcEEEC2B7v160006Emc, symObjAddr: 0x3C14, symBinAddr: 0x1000062D4, symSize: 0x54 }
  - { offsetInCU: 0xCC7A, offset: 0xCC7A, size: 0x8, addend: 0x0, symName: __ZNSt3__119ostreambuf_iteratorIcNS_11char_traitsIcEEEC2B7v160006ERNS_13basic_ostreamIcS2_EE, symObjAddr: 0x3C68, symBinAddr: 0x100006328, symSize: 0x68 }
  - { offsetInCU: 0xCCB0, offset: 0xCCB0, size: 0x8, addend: 0x0, symName: __ZNKSt3__19basic_iosIcNS_11char_traitsIcEEE5rdbufB7v160006Ev, symObjAddr: 0x3CD0, symBinAddr: 0x100006390, symSize: 0x24 }
  - { offsetInCU: 0xCCD7, offset: 0xCCD7, size: 0x8, addend: 0x0, symName: __ZNKSt3__18ios_base5rdbufB7v160006Ev, symObjAddr: 0x3CF4, symBinAddr: 0x1000063B4, symSize: 0x18 }
  - { offsetInCU: 0xCCFC, offset: 0xCCFC, size: 0x8, addend: 0x0, symName: __ZNSt3__111char_traitsIcE11eq_int_typeEii, symObjAddr: 0x3D0C, symBinAddr: 0x1000063CC, symSize: 0x28 }
  - { offsetInCU: 0xCD2D, offset: 0xCD2D, size: 0x8, addend: 0x0, symName: __ZNSt3__111char_traitsIcE3eofEv, symObjAddr: 0x3D34, symBinAddr: 0x1000063F4, symSize: 0x8 }
  - { offsetInCU: 0xCD40, offset: 0xCD40, size: 0x8, addend: 0x0, symName: __ZNKSt3__19basic_iosIcNS_11char_traitsIcEEE5widenB7v160006Ec, symObjAddr: 0x3D3C, symBinAddr: 0x1000063FC, symSize: 0x8C }
  - { offsetInCU: 0xCDAD, offset: 0xCDAD, size: 0x8, addend: 0x0, symName: __ZNKSt3__15ctypeIcE5widenB7v160006Ec, symObjAddr: 0x3DF4, symBinAddr: 0x1000064B4, symSize: 0x38 }
  - { offsetInCU: 0xCDE0, offset: 0xCDE0, size: 0x8, addend: 0x0, symName: __ZNSt3__18ios_base8setstateB7v160006Ej, symObjAddr: 0x3E2C, symBinAddr: 0x1000064EC, symSize: 0x34 }
  - { offsetInCU: 0x484D, offset: 0x11752, size: 0x8, addend: 0x0, symName: __ZN4SongC2Ev, symObjAddr: 0x0, symBinAddr: 0x100006520, symSize: 0x78 }
  - { offsetInCU: 0x487D, offset: 0x11782, size: 0x8, addend: 0x0, symName: __ZN4SongC1Ev, symObjAddr: 0xB8, symBinAddr: 0x100006598, symSize: 0x2C }
  - { offsetInCU: 0x48A8, offset: 0x117AD, size: 0x8, addend: 0x0, symName: __ZN4SongC2ENSt3__112basic_stringIcNS0_11char_traitsIcEENS0_9allocatorIcEEEES6_, symObjAddr: 0xE4, symBinAddr: 0x1000065C4, symSize: 0x7C }
  - { offsetInCU: 0x48F1, offset: 0x117F6, size: 0x8, addend: 0x0, symName: __ZN4SongC1ENSt3__112basic_stringIcNS0_11char_traitsIcEENS0_9allocatorIcEEEES6_, symObjAddr: 0x160, symBinAddr: 0x100006640, symSize: 0x3C }
  - { offsetInCU: 0x493A, offset: 0x1183F, size: 0x8, addend: 0x0, symName: __ZNK4Song8getTitleEv, symObjAddr: 0x19C, symBinAddr: 0x10000667C, symSize: 0x38 }
  - { offsetInCU: 0x4961, offset: 0x11866, size: 0x8, addend: 0x0, symName: __ZNK4Song9getArtistEv, symObjAddr: 0x1D4, symBinAddr: 0x1000066B4, symSize: 0x3C }
  - { offsetInCU: 0x4988, offset: 0x1188D, size: 0x8, addend: 0x0, symName: __ZN4Song8setTitleERKNSt3__112basic_stringIcNS0_11char_traitsIcEENS0_9allocatorIcEEEE, symObjAddr: 0x210, symBinAddr: 0x1000066F0, symSize: 0x2C }
  - { offsetInCU: 0x49BD, offset: 0x118C2, size: 0x8, addend: 0x0, symName: __ZN4Song9setArtistERKNSt3__112basic_stringIcNS0_11char_traitsIcEENS0_9allocatorIcEEEE, symObjAddr: 0x23C, symBinAddr: 0x10000671C, symSize: 0x30 }
  - { offsetInCU: 0x68BB, offset: 0x181BC, size: 0x8, addend: 0x0, symName: __ZNSt3__17getlineB7v160006IcNS_11char_traitsIcEENS_9allocatorIcEEEERNS_13basic_istreamIT_T0_EES9_RNS_12basic_stringIS6_S7_T1_EE, symObjAddr: 0x7BC, symBinAddr: 0x100006E78, symSize: 0x5C }
  - { offsetInCU: 0x6913, offset: 0x18214, size: 0x8, addend: 0x0, symName: __ZNSt3__118__debug_db_erase_cB7v160006INS_6vectorI4SongNS_9allocatorIS2_EEEEEEvPT_, symObjAddr: 0x1708, symBinAddr: 0x100007BF4, symSize: 0x10 }
  - { offsetInCU: 0x6944, offset: 0x18245, size: 0x8, addend: 0x0, symName: __ZNSt3__119__debug_db_insert_cB7v160006INS_6vectorI8PlaylistNS_9allocatorIS2_EEEEEEvPT_, symObjAddr: 0x1DAC, symBinAddr: 0x100007CB4, symSize: 0x10 }
  - { offsetInCU: 0x6975, offset: 0x18276, size: 0x8, addend: 0x0, symName: __ZNSt3__118__debug_db_erase_cB7v160006INS_6vectorI8PlaylistNS_9allocatorIS2_EEEEEEvPT_, symObjAddr: 0x2084, symBinAddr: 0x100007F8C, symSize: 0x10 }
  - { offsetInCU: 0x69A6, offset: 0x182A7, size: 0x8, addend: 0x0, symName: __ZNSt3__112__to_addressB7v160006I8PlaylistEEPT_S3_, symObjAddr: 0x21A0, symBinAddr: 0x1000080A8, symSize: 0x14 }
  - { offsetInCU: 0x69DB, offset: 0x182DC, size: 0x8, addend: 0x0, symName: __ZNSt3__17getlineB7v160006IcNS_11char_traitsIcEENS_9allocatorIcEEEERNS_13basic_istreamIT_T0_EES9_RNS_12basic_stringIS6_S7_T1_EES6_, symObjAddr: 0x2DAC, symBinAddr: 0x1000082BC, symSize: 0x238 }
  - { offsetInCU: 0x7023, offset: 0x18924, size: 0x8, addend: 0x0, symName: __ZNSt3__125__debug_db_invalidate_allB7v160006INS_12basic_stringIcNS_11char_traitsIcEENS_9allocatorIcEEEEEEvPT_, symObjAddr: 0x32DC, symBinAddr: 0x100008798, symSize: 0x10 }
  - { offsetInCU: 0x7289, offset: 0x18B8A, size: 0x8, addend: 0x0, symName: __ZNSt3__122__make_exception_guardB7v160006INS_6vectorI4SongNS_9allocatorIS2_EEE16__destroy_vectorEEENS_28__exception_guard_exceptionsIT_EES8_, symObjAddr: 0x3EE8, symBinAddr: 0x1000092A0, symSize: 0x40 }
  - { offsetInCU: 0x72BE, offset: 0x18BBF, size: 0x8, addend: 0x0, symName: __ZNSt3__130__uninitialized_allocator_copyB7v160006INS_9allocatorI4SongEEPS2_S4_S4_EET2_RT_T0_T1_S5_, symObjAddr: 0x4680, symBinAddr: 0x100009524, symSize: 0xFC }
  - { offsetInCU: 0x735C, offset: 0x18C5D, size: 0x8, addend: 0x0, symName: __ZNSt3__122__make_exception_guardB7v160006INS_29_AllocatorDestroyRangeReverseINS_9allocatorI4SongEEPS3_EEEENS_28__exception_guard_exceptionsIT_EES8_, symObjAddr: 0x47F4, symBinAddr: 0x100009620, symSize: 0x4C }
  - { offsetInCU: 0x7392, offset: 0x18C93, size: 0x8, addend: 0x0, symName: __ZNSt3__119__allocator_destroyB7v160006INS_9allocatorI4SongEENS_16reverse_iteratorIPS2_EES6_EEvRT_T0_T1_, symObjAddr: 0x4B28, symBinAddr: 0x1000098A8, symSize: 0x70 }
  - { offsetInCU: 0x73F5, offset: 0x18CF6, size: 0x8, addend: 0x0, symName: __ZNSt3__119__allocate_at_leastB7v160006INS_9allocatorI8PlaylistEEEENS_19__allocation_resultINS_16allocator_traitsIT_E7pointerEEERS6_m, symObjAddr: 0x52BC, symBinAddr: 0x100009E04, symSize: 0x40 }
  - { offsetInCU: 0x7438, offset: 0x18D39, size: 0x8, addend: 0x0, symName: __ZNSt3__142__uninitialized_allocator_move_if_noexceptB7v160006INS_9allocatorI8PlaylistEENS_16reverse_iteratorIPS2_EES6_S6_EET2_RT_T0_T1_S7_, symObjAddr: 0x54A4, symBinAddr: 0x100009FEC, symSize: 0x134 }
  - { offsetInCU: 0x74D8, offset: 0x18DD9, size: 0x8, addend: 0x0, symName: __ZNSt3__14swapB7v160006IP8PlaylistEEvRT_S4_, symObjAddr: 0x5624, symBinAddr: 0x10000A16C, symSize: 0x3C }
  - { offsetInCU: 0x7529, offset: 0x18E2A, size: 0x8, addend: 0x0, symName: __ZNSt3__125__debug_db_invalidate_allB7v160006INS_6vectorI8PlaylistNS_9allocatorIS2_EEEEEEvPT_, symObjAddr: 0x5728, symBinAddr: 0x10000A270, symSize: 0x10 }
  - { offsetInCU: 0x755A, offset: 0x18E5B, size: 0x8, addend: 0x0, symName: __ZNSt3__122__make_exception_guardB7v160006INS_29_AllocatorDestroyRangeReverseINS_9allocatorI8PlaylistEENS_16reverse_iteratorIPS3_EEEEEENS_28__exception_guard_exceptionsIT_EESA_, symObjAddr: 0x5738, symBinAddr: 0x10000A280, symSize: 0x4C }
  - { offsetInCU: 0x7590, offset: 0x18E91, size: 0x8, addend: 0x0, symName: __ZNSt3__1neB7v160006IP8PlaylistS2_EEbRKNS_16reverse_iteratorIT_EERKNS3_IT0_EE, symObjAddr: 0x57C8, symBinAddr: 0x10000A310, symSize: 0x48 }
  - { offsetInCU: 0x75DC, offset: 0x18EDD, size: 0x8, addend: 0x0, symName: __ZNSt3__112__to_addressB7v160006INS_16reverse_iteratorIP8PlaylistEEvEENS_5decayIDTclsr19__to_address_helperIT_EE6__callclsr3stdE7declvalIRKS6_EEEEE4typeES8_, symObjAddr: 0x5810, symBinAddr: 0x10000A358, symSize: 0x24 }
  - { offsetInCU: 0x763B, offset: 0x18F3C, size: 0x8, addend: 0x0, symName: __ZNSt3__119__allocator_destroyB7v160006INS_9allocatorI8PlaylistEENS_16reverse_iteratorINS4_IPS2_EEEES7_EEvRT_T0_T1_, symObjAddr: 0x5ACC, symBinAddr: 0x10000A614, symSize: 0x70 }
  - { offsetInCU: 0x76A0, offset: 0x18FA1, size: 0x8, addend: 0x0, symName: __ZNSt3__1neB7v160006INS_16reverse_iteratorIP8PlaylistEES4_EEbRKNS1_IT_EERKNS1_IT0_EE, symObjAddr: 0x5B78, symBinAddr: 0x10000A6C0, symSize: 0x60 }
  - { offsetInCU: 0x76EC, offset: 0x18FED, size: 0x8, addend: 0x0, symName: __ZNSt3__112__to_addressB7v160006INS_16reverse_iteratorINS1_IP8PlaylistEEEEvEENS_5decayIDTclsr19__to_address_helperIT_EE6__callclsr3stdE7declvalIRKS7_EEEEE4typeES9_, symObjAddr: 0x5BD8, symBinAddr: 0x10000A720, symSize: 0x24 }
  - { offsetInCU: 0x7EA1, offset: 0x197A2, size: 0x8, addend: 0x0, symName: __ZNSt3__16vectorI8PlaylistNS_9allocatorIS1_EEE26__swap_out_circular_bufferERNS_14__split_bufferIS1_RS3_EE, symObjAddr: 0x4EB0, symBinAddr: 0x100009A78, symSize: 0x118 }
  - { offsetInCU: 0x9E14, offset: 0x1B715, size: 0x8, addend: 0x0, symName: __ZN12SystemDriverC2Ev, symObjAddr: 0x0, symBinAddr: 0x10000674C, symSize: 0x78 }
  - { offsetInCU: 0x9E44, offset: 0x1B745, size: 0x8, addend: 0x0, symName: __ZN12SystemDriverC1Ev, symObjAddr: 0xB8, symBinAddr: 0x1000067C4, symSize: 0x2C }
  - { offsetInCU: 0x9E6F, offset: 0x1B770, size: 0x8, addend: 0x0, symName: __ZN12SystemDriverD2Ev, symObjAddr: 0xE4, symBinAddr: 0x1000067F0, symSize: 0x68 }
  - { offsetInCU: 0x9E9A, offset: 0x1B79B, size: 0x8, addend: 0x0, symName: __ZN12SystemDriverD1Ev, symObjAddr: 0x14C, symBinAddr: 0x100006858, symSize: 0x2C }
  - { offsetInCU: 0x9EC5, offset: 0x1B7C6, size: 0x8, addend: 0x0, symName: __ZN12SystemDriver3runEv, symObjAddr: 0x178, symBinAddr: 0x100006884, symSize: 0x1DC }
  - { offsetInCU: 0x9F08, offset: 0x1B809, size: 0x8, addend: 0x0, symName: __ZNSt3__16vectorI8PlaylistNS_9allocatorIS1_EEEC1B7v160006Ev, symObjAddr: 0x354, symBinAddr: 0x100006A60, symSize: 0x2C }
  - { offsetInCU: 0x9F31, offset: 0x1B832, size: 0x8, addend: 0x0, symName: __ZN12SystemDriver12signInAsUserEv, symObjAddr: 0x3D0, symBinAddr: 0x100006A8C, symSize: 0x70 }
  - { offsetInCU: 0x9F58, offset: 0x1B859, size: 0x8, addend: 0x0, symName: __ZN12SystemDriver12showUserMenuERNSt3__16vectorI8PlaylistNS0_9allocatorIS2_EEEE, symObjAddr: 0x440, symBinAddr: 0x100006AFC, symSize: 0x150 }
  - { offsetInCU: 0x9F9B, offset: 0x1B89C, size: 0x8, addend: 0x0, symName: __ZN12SystemDriver15signInAsCreatorEv, symObjAddr: 0x590, symBinAddr: 0x100006C4C, symSize: 0x78 }
  - { offsetInCU: 0x9FC2, offset: 0x1B8C3, size: 0x8, addend: 0x0, symName: __ZN12SystemDriver15showCreatorMenuERNSt3__16vectorI8PlaylistNS0_9allocatorIS2_EEEE, symObjAddr: 0x608, symBinAddr: 0x100006CC4, symSize: 0x174 }
  - { offsetInCU: 0xA005, offset: 0x1B906, size: 0x8, addend: 0x0, symName: __ZNSt3__16vectorI8PlaylistNS_9allocatorIS1_EEED1B7v160006Ev, symObjAddr: 0x790, symBinAddr: 0x100006E4C, symSize: 0x2C }
  - { offsetInCU: 0xA02E, offset: 0x1B92F, size: 0x8, addend: 0x0, symName: __ZN12SystemDriver14createPlaylistERNSt3__16vectorI8PlaylistNS0_9allocatorIS2_EEEE, symObjAddr: 0x864, symBinAddr: 0x100006ED4, symSize: 0x220 }
  - { offsetInCU: 0xA08E, offset: 0x1B98F, size: 0x8, addend: 0x0, symName: __ZN12SystemDriver13viewPlaylistsERNSt3__16vectorI8PlaylistNS0_9allocatorIS2_EEEE, symObjAddr: 0xA84, symBinAddr: 0x1000070F4, symSize: 0x1E8 }
  - { offsetInCU: 0xA0E6, offset: 0x1B9E7, size: 0x8, addend: 0x0, symName: __ZNSt3__112basic_stringIcNS_11char_traitsIcEENS_9allocatorIcEEEC1B7v160006Ev, symObjAddr: 0xC6C, symBinAddr: 0x1000072DC, symSize: 0x2C }
  - { offsetInCU: 0xA10E, offset: 0x1BA0F, size: 0x8, addend: 0x0, symName: __ZNSt3__16vectorI8PlaylistNS_9allocatorIS1_EEE9push_backB7v160006ERKS1_, symObjAddr: 0xC98, symBinAddr: 0x100007308, symSize: 0x6C }
  - { offsetInCU: 0xA144, offset: 0x1BA45, size: 0x8, addend: 0x0, symName: __ZN12SystemDriver17addSongToPlaylistER8Playlist, symObjAddr: 0xD04, symBinAddr: 0x100007374, symSize: 0x238 }
  - { offsetInCU: 0xA1A4, offset: 0x1BAA5, size: 0x8, addend: 0x0, symName: __ZNSt3__16vectorI8PlaylistNS_9allocatorIS1_EEE4backB7v160006Ev, symObjAddr: 0xF3C, symBinAddr: 0x1000075AC, symSize: 0x1C }
  - { offsetInCU: 0xA1C9, offset: 0x1BACA, size: 0x8, addend: 0x0, symName: __ZN8PlaylistD1Ev, symObjAddr: 0xF58, symBinAddr: 0x1000075C8, symSize: 0x2C }
  - { offsetInCU: 0xA1F4, offset: 0x1BAF5, size: 0x8, addend: 0x0, symName: __ZNKSt3__16vectorI8PlaylistNS_9allocatorIS1_EEE5emptyB7v160006Ev, symObjAddr: 0xF84, symBinAddr: 0x1000075F4, symSize: 0x28 }
  - { offsetInCU: 0xA219, offset: 0x1BB1A, size: 0x8, addend: 0x0, symName: __ZNKSt3__16vectorI8PlaylistNS_9allocatorIS1_EEE4sizeB7v160006Ev, symObjAddr: 0xFAC, symBinAddr: 0x10000761C, symSize: 0x28 }
  - { offsetInCU: 0xA23E, offset: 0x1BB3F, size: 0x8, addend: 0x0, symName: __ZNSt3__16vectorI8PlaylistNS_9allocatorIS1_EEEixB7v160006Em, symObjAddr: 0xFD4, symBinAddr: 0x100007644, symSize: 0x2C }
  - { offsetInCU: 0xA274, offset: 0x1BB75, size: 0x8, addend: 0x0, symName: __ZN12SystemDriver19viewSongsInPlaylistER8Playlist, symObjAddr: 0x1084, symBinAddr: 0x100007670, symSize: 0x188 }
  - { offsetInCU: 0xA2CB, offset: 0x1BBCC, size: 0x8, addend: 0x0, symName: __ZN12SystemDriver22removeSongFromPlaylistERNSt3__16vectorI8PlaylistNS0_9allocatorIS2_EEEE, symObjAddr: 0x1238, symBinAddr: 0x1000077F8, symSize: 0x23C }
  - { offsetInCU: 0xA341, offset: 0x1BC42, size: 0x8, addend: 0x0, symName: __ZN8PlaylistD2Ev, symObjAddr: 0x1474, symBinAddr: 0x100007A34, symSize: 0x68 }
  - { offsetInCU: 0xA36C, offset: 0x1BC6D, size: 0x8, addend: 0x0, symName: __ZNSt3__16vectorI4SongNS_9allocatorIS1_EEED1B7v160006Ev, symObjAddr: 0x14DC, symBinAddr: 0x100007A9C, symSize: 0x2C }
  - { offsetInCU: 0xA395, offset: 0x1BC96, size: 0x8, addend: 0x0, symName: __ZNSt3__16vectorI4SongNS_9allocatorIS1_EEED2B7v160006Ev, symObjAddr: 0x1508, symBinAddr: 0x100007AC8, symSize: 0x3C }
  - { offsetInCU: 0xA3BE, offset: 0x1BCBF, size: 0x8, addend: 0x0, symName: __ZNSt3__16vectorI4SongNS_9allocatorIS1_EEE16__destroy_vectorC1ERS4_, symObjAddr: 0x1544, symBinAddr: 0x100007B04, symSize: 0x34 }
  - { offsetInCU: 0xA3F6, offset: 0x1BCF7, size: 0x8, addend: 0x0, symName: __ZNSt3__16vectorI4SongNS_9allocatorIS1_EEE16__destroy_vectorclB7v160006Ev, symObjAddr: 0x1578, symBinAddr: 0x100007B38, symSize: 0x9C }
  - { offsetInCU: 0xA41B, offset: 0x1BD1C, size: 0x8, addend: 0x0, symName: __ZNSt3__16vectorI4SongNS_9allocatorIS1_EEE16__destroy_vectorC2ERS4_, symObjAddr: 0x1614, symBinAddr: 0x100007BD4, symSize: 0x20 }
  - { offsetInCU: 0xA453, offset: 0x1BD54, size: 0x8, addend: 0x0, symName: __ZNSt3__16vectorI4SongNS_9allocatorIS1_EEE7__clearB7v160006Ev, symObjAddr: 0x1718, symBinAddr: 0x100007C04, symSize: 0x28 }
  - { offsetInCU: 0xA47D, offset: 0x1BD7E, size: 0x8, addend: 0x0, symName: __ZNSt3__16vectorI8PlaylistNS_9allocatorIS1_EEEC2B7v160006Ev, symObjAddr: 0x1D24, symBinAddr: 0x100007C2C, symSize: 0x4C }
  - { offsetInCU: 0xA4AB, offset: 0x1BDAC, size: 0x8, addend: 0x0, symName: __ZNSt3__117__compressed_pairIP8PlaylistNS_9allocatorIS1_EEEC1B7v160006IDnNS_18__default_init_tagEEEOT_OT0_, symObjAddr: 0x1D70, symBinAddr: 0x100007C78, symSize: 0x3C }
  - { offsetInCU: 0xA502, offset: 0x1BE03, size: 0x8, addend: 0x0, symName: __ZNSt3__117__compressed_pairIP8PlaylistNS_9allocatorIS1_EEEC2B7v160006IDnNS_18__default_init_tagEEEOT_OT0_, symObjAddr: 0x1DBC, symBinAddr: 0x100007CC4, symSize: 0x40 }
  - { offsetInCU: 0xA559, offset: 0x1BE5A, size: 0x8, addend: 0x0, symName: __ZNSt3__122__compressed_pair_elemIP8PlaylistLi0ELb0EEC2B7v160006IDnvEEOT_, symObjAddr: 0x1DFC, symBinAddr: 0x100007D04, symSize: 0x1C }
  - { offsetInCU: 0xA59A, offset: 0x1BE9B, size: 0x8, addend: 0x0, symName: __ZNSt3__122__compressed_pair_elemINS_9allocatorI8PlaylistEELi1ELb1EEC2B7v160006ENS_18__default_init_tagE, symObjAddr: 0x1E18, symBinAddr: 0x100007D20, symSize: 0x2C }
  - { offsetInCU: 0xA5CE, offset: 0x1BECF, size: 0x8, addend: 0x0, symName: __ZNSt3__19allocatorI8PlaylistEC2B7v160006Ev, symObjAddr: 0x1E44, symBinAddr: 0x100007D4C, symSize: 0x2C }
  - { offsetInCU: 0xA5F7, offset: 0x1BEF8, size: 0x8, addend: 0x0, symName: __ZNSt3__116__non_trivial_ifILb1ENS_9allocatorI8PlaylistEEEC2B7v160006Ev, symObjAddr: 0x1E70, symBinAddr: 0x100007D78, symSize: 0x14 }
  - { offsetInCU: 0xA620, offset: 0x1BF21, size: 0x8, addend: 0x0, symName: __ZNSt3__16vectorI8PlaylistNS_9allocatorIS1_EEED2B7v160006Ev, symObjAddr: 0x1E84, symBinAddr: 0x100007D8C, symSize: 0x3C }
  - { offsetInCU: 0xA649, offset: 0x1BF4A, size: 0x8, addend: 0x0, symName: __ZNSt3__16vectorI8PlaylistNS_9allocatorIS1_EEE16__destroy_vectorC1ERS4_, symObjAddr: 0x1EC0, symBinAddr: 0x100007DC8, symSize: 0x34 }
  - { offsetInCU: 0xA681, offset: 0x1BF82, size: 0x8, addend: 0x0, symName: __ZNSt3__16vectorI8PlaylistNS_9allocatorIS1_EEE16__destroy_vectorclB7v160006Ev, symObjAddr: 0x1EF4, symBinAddr: 0x100007DFC, symSize: 0x9C }
  - { offsetInCU: 0xA6A6, offset: 0x1BFA7, size: 0x8, addend: 0x0, symName: __ZNSt3__16vectorI8PlaylistNS_9allocatorIS1_EEE16__destroy_vectorC2ERS4_, symObjAddr: 0x1F90, symBinAddr: 0x100007E98, symSize: 0x20 }
  - { offsetInCU: 0xA6DE, offset: 0x1BFDF, size: 0x8, addend: 0x0, symName: __ZNKSt3__16vectorI8PlaylistNS_9allocatorIS1_EEE17__annotate_deleteB7v160006Ev, symObjAddr: 0x1FB0, symBinAddr: 0x100007EB8, symSize: 0xD4 }
  - { offsetInCU: 0xA703, offset: 0x1C004, size: 0x8, addend: 0x0, symName: __ZNSt3__16vectorI8PlaylistNS_9allocatorIS1_EEE7__clearB7v160006Ev, symObjAddr: 0x2094, symBinAddr: 0x100007F9C, symSize: 0x28 }
  - { offsetInCU: 0xA728, offset: 0x1C029, size: 0x8, addend: 0x0, symName: __ZNSt3__116allocator_traitsINS_9allocatorI8PlaylistEEE10deallocateB7v160006ERS3_PS2_m, symObjAddr: 0x20BC, symBinAddr: 0x100007FC4, symSize: 0x34 }
  - { offsetInCU: 0xA76A, offset: 0x1C06B, size: 0x8, addend: 0x0, symName: __ZNSt3__16vectorI8PlaylistNS_9allocatorIS1_EEE7__allocB7v160006Ev, symObjAddr: 0x20F0, symBinAddr: 0x100007FF8, symSize: 0x28 }
  - { offsetInCU: 0xA78F, offset: 0x1C090, size: 0x8, addend: 0x0, symName: __ZNKSt3__16vectorI8PlaylistNS_9allocatorIS1_EEE8capacityB7v160006Ev, symObjAddr: 0x2118, symBinAddr: 0x100008020, symSize: 0x40 }
  - { offsetInCU: 0xA7B4, offset: 0x1C0B5, size: 0x8, addend: 0x0, symName: __ZNKSt3__16vectorI8PlaylistNS_9allocatorIS1_EEE31__annotate_contiguous_containerB7v160006EPKvS6_S6_S6_, symObjAddr: 0x2158, symBinAddr: 0x100008060, symSize: 0x20 }
  - { offsetInCU: 0xA809, offset: 0x1C10A, size: 0x8, addend: 0x0, symName: __ZNKSt3__16vectorI8PlaylistNS_9allocatorIS1_EEE4dataB7v160006Ev, symObjAddr: 0x2178, symBinAddr: 0x100008080, symSize: 0x28 }
  - { offsetInCU: 0xA82E, offset: 0x1C12F, size: 0x8, addend: 0x0, symName: __ZNSt3__16vectorI8PlaylistNS_9allocatorIS1_EEE22__base_destruct_at_endB7v160006EPS1_, symObjAddr: 0x21B4, symBinAddr: 0x1000080BC, symSize: 0xA0 }
  - { offsetInCU: 0xA871, offset: 0x1C172, size: 0x8, addend: 0x0, symName: __ZNSt3__116allocator_traitsINS_9allocatorI8PlaylistEEE7destroyB7v160006IS2_vEEvRS3_PT_, symObjAddr: 0x2254, symBinAddr: 0x10000815C, symSize: 0x2C }
  - { offsetInCU: 0xA8AE, offset: 0x1C1AF, size: 0x8, addend: 0x0, symName: __ZNSt3__19allocatorI8PlaylistE7destroyB7v160006EPS1_, symObjAddr: 0x2280, symBinAddr: 0x100008188, symSize: 0x28 }
  - { offsetInCU: 0xA8E1, offset: 0x1C1E2, size: 0x8, addend: 0x0, symName: __ZNSt3__19allocatorI8PlaylistE10deallocateB7v160006EPS1_m, symObjAddr: 0x22A8, symBinAddr: 0x1000081B0, symSize: 0x74 }
  - { offsetInCU: 0xA922, offset: 0x1C223, size: 0x8, addend: 0x0, symName: __ZNSt3__117__compressed_pairIP8PlaylistNS_9allocatorIS1_EEE6secondB7v160006Ev, symObjAddr: 0x231C, symBinAddr: 0x100008224, symSize: 0x24 }
  - { offsetInCU: 0xA947, offset: 0x1C248, size: 0x8, addend: 0x0, symName: __ZNSt3__122__compressed_pair_elemINS_9allocatorI8PlaylistEELi1ELb1EE5__getB7v160006Ev, symObjAddr: 0x2340, symBinAddr: 0x100008248, symSize: 0x14 }
  - { offsetInCU: 0xA96C, offset: 0x1C26D, size: 0x8, addend: 0x0, symName: __ZNKSt3__16vectorI8PlaylistNS_9allocatorIS1_EEE9__end_capB7v160006Ev, symObjAddr: 0x2354, symBinAddr: 0x10000825C, symSize: 0x28 }
  - { offsetInCU: 0xA991, offset: 0x1C292, size: 0x8, addend: 0x0, symName: __ZNKSt3__117__compressed_pairIP8PlaylistNS_9allocatorIS1_EEE5firstB7v160006Ev, symObjAddr: 0x237C, symBinAddr: 0x100008284, symSize: 0x24 }
  - { offsetInCU: 0xA9B6, offset: 0x1C2B7, size: 0x8, addend: 0x0, symName: __ZNKSt3__122__compressed_pair_elemIP8PlaylistLi0ELb0EE5__getB7v160006Ev, symObjAddr: 0x23A0, symBinAddr: 0x1000082A8, symSize: 0x14 }
  - { offsetInCU: 0xAA6D, offset: 0x1C36E, size: 0x8, addend: 0x0, symName: __ZNKSt3__113basic_istreamIcNS_11char_traitsIcEEE6sentrycvbB7v160006Ev, symObjAddr: 0x2FE4, symBinAddr: 0x1000084F4, symSize: 0x1C }
  - { offsetInCU: 0xAA91, offset: 0x1C392, size: 0x8, addend: 0x0, symName: __ZNSt3__112basic_stringIcNS_11char_traitsIcEENS_9allocatorIcEEE5clearB7v160006Ev, symObjAddr: 0x3000, symBinAddr: 0x100008510, symSize: 0x9C }
  - { offsetInCU: 0xAAB8, offset: 0x1C3B9, size: 0x8, addend: 0x0, symName: __ZNSt3__115basic_streambufIcNS_11char_traitsIcEEE6sbumpcB7v160006Ev, symObjAddr: 0x309C, symBinAddr: 0x1000085AC, symSize: 0x78 }
  - { offsetInCU: 0xAADD, offset: 0x1C3DE, size: 0x8, addend: 0x0, symName: __ZNSt3__111char_traitsIcE12to_char_typeEi, symObjAddr: 0x3114, symBinAddr: 0x100008624, symSize: 0x18 }
  - { offsetInCU: 0xAB00, offset: 0x1C401, size: 0x8, addend: 0x0, symName: __ZNSt3__111char_traitsIcE2eqEcc, symObjAddr: 0x312C, symBinAddr: 0x10000863C, symSize: 0x28 }
  - { offsetInCU: 0xAB31, offset: 0x1C432, size: 0x8, addend: 0x0, symName: __ZNKSt3__112basic_stringIcNS_11char_traitsIcEENS_9allocatorIcEEE8max_sizeB7v160006Ev, symObjAddr: 0x31A8, symBinAddr: 0x100008664, symSize: 0xAC }
  - { offsetInCU: 0xAB83, offset: 0x1C484, size: 0x8, addend: 0x0, symName: __ZNSt3__18ios_base18__setstate_nothrowB7v160006Ej, symObjAddr: 0x3254, symBinAddr: 0x100008710, symSize: 0x64 }
  - { offsetInCU: 0xABB7, offset: 0x1C4B8, size: 0x8, addend: 0x0, symName: __ZNKSt3__19basic_iosIcNS_11char_traitsIcEEE10exceptionsB7v160006Ev, symObjAddr: 0x32B8, symBinAddr: 0x100008774, symSize: 0x24 }
  - { offsetInCU: 0xABDC, offset: 0x1C4DD, size: 0x8, addend: 0x0, symName: __ZNSt3__111char_traitsIcE6assignERcRKc, symObjAddr: 0x32EC, symBinAddr: 0x1000087A8, symSize: 0x24 }
  - { offsetInCU: 0xAC0D, offset: 0x1C50E, size: 0x8, addend: 0x0, symName: __ZNSt3__112basic_stringIcNS_11char_traitsIcEENS_9allocatorIcEEE18__get_long_pointerB7v160006Ev, symObjAddr: 0x3310, symBinAddr: 0x1000087CC, symSize: 0x28 }
  - { offsetInCU: 0xAC32, offset: 0x1C533, size: 0x8, addend: 0x0, symName: __ZNSt3__112basic_stringIcNS_11char_traitsIcEENS_9allocatorIcEEE15__set_long_sizeB7v160006Em, symObjAddr: 0x3338, symBinAddr: 0x1000087F4, symSize: 0x38 }
  - { offsetInCU: 0xAC66, offset: 0x1C567, size: 0x8, addend: 0x0, symName: __ZNSt3__112basic_stringIcNS_11char_traitsIcEENS_9allocatorIcEEE19__get_short_pointerB7v160006Ev, symObjAddr: 0x3370, symBinAddr: 0x10000882C, symSize: 0x28 }
  - { offsetInCU: 0xAC8B, offset: 0x1C58C, size: 0x8, addend: 0x0, symName: __ZNSt3__112basic_stringIcNS_11char_traitsIcEENS_9allocatorIcEEE16__set_short_sizeB7v160006Em, symObjAddr: 0x3398, symBinAddr: 0x100008854, symSize: 0x78 }
  - { offsetInCU: 0xACBF, offset: 0x1C5C0, size: 0x8, addend: 0x0, symName: __ZNSt3__117__compressed_pairINS_12basic_stringIcNS_11char_traitsIcEENS_9allocatorIcEEE5__repES5_E5firstB7v160006Ev, symObjAddr: 0x3410, symBinAddr: 0x1000088CC, symSize: 0x24 }
  - { offsetInCU: 0xACE4, offset: 0x1C5E5, size: 0x8, addend: 0x0, symName: __ZNSt3__122__compressed_pair_elemINS_12basic_stringIcNS_11char_traitsIcEENS_9allocatorIcEEE5__repELi0ELb0EE5__getB7v160006Ev, symObjAddr: 0x3434, symBinAddr: 0x1000088F0, symSize: 0x14 }
  - { offsetInCU: 0xAD09, offset: 0x1C60A, size: 0x8, addend: 0x0, symName: __ZNSt3__114pointer_traitsIPcE10pointer_toB7v160006ERc, symObjAddr: 0x3448, symBinAddr: 0x100008904, symSize: 0x14 }
  - { offsetInCU: 0xAD2C, offset: 0x1C62D, size: 0x8, addend: 0x0, symName: __ZNSt3__111char_traitsIcE11to_int_typeEc, symObjAddr: 0x345C, symBinAddr: 0x100008918, symSize: 0x14 }
  - { offsetInCU: 0xAD59, offset: 0x1C65A, size: 0x8, addend: 0x0, symName: __ZNSt3__116allocator_traitsINS_9allocatorIcEEE8max_sizeB7v160006IS2_vEEmRKS2_, symObjAddr: 0x34CC, symBinAddr: 0x10000892C, symSize: 0x24 }
  - { offsetInCU: 0xAD87, offset: 0x1C688, size: 0x8, addend: 0x0, symName: __ZNKSt3__112basic_stringIcNS_11char_traitsIcEENS_9allocatorIcEEE7__allocB7v160006Ev, symObjAddr: 0x34F0, symBinAddr: 0x100008950, symSize: 0x24 }
  - { offsetInCU: 0xADAC, offset: 0x1C6AD, size: 0x8, addend: 0x0, symName: __ZNSt3__114numeric_limitsImE3maxB7v160006Ev, symObjAddr: 0x3514, symBinAddr: 0x100008974, symSize: 0x14 }
  - { offsetInCU: 0xADC0, offset: 0x1C6C1, size: 0x8, addend: 0x0, symName: __ZNKSt3__19allocatorIcE8max_sizeB7v160006Ev, symObjAddr: 0x3528, symBinAddr: 0x100008988, symSize: 0x14 }
  - { offsetInCU: 0xADE5, offset: 0x1C6E6, size: 0x8, addend: 0x0, symName: __ZNKSt3__117__compressed_pairINS_12basic_stringIcNS_11char_traitsIcEENS_9allocatorIcEEE5__repES5_E6secondB7v160006Ev, symObjAddr: 0x353C, symBinAddr: 0x10000899C, symSize: 0x24 }
  - { offsetInCU: 0xAE0A, offset: 0x1C70B, size: 0x8, addend: 0x0, symName: __ZNKSt3__122__compressed_pair_elemINS_9allocatorIcEELi1ELb1EE5__getB7v160006Ev, symObjAddr: 0x3560, symBinAddr: 0x1000089C0, symSize: 0x14 }
  - { offsetInCU: 0xAE2F, offset: 0x1C730, size: 0x8, addend: 0x0, symName: __ZNSt3__123__libcpp_numeric_limitsImLb1EE3maxB7v160006Ev, symObjAddr: 0x3574, symBinAddr: 0x1000089D4, symSize: 0x8 }
  - { offsetInCU: 0xAE43, offset: 0x1C744, size: 0x8, addend: 0x0, symName: __ZNKSt3__18ios_base10exceptionsB7v160006Ev, symObjAddr: 0x357C, symBinAddr: 0x1000089DC, symSize: 0x18 }
  - { offsetInCU: 0xAE6A, offset: 0x1C76B, size: 0x8, addend: 0x0, symName: __ZNSt3__112basic_stringIcNS_11char_traitsIcEENS_9allocatorIcEEEC2B7v160006Ev, symObjAddr: 0x3594, symBinAddr: 0x1000089F4, symSize: 0x44 }
  - { offsetInCU: 0xAE93, offset: 0x1C794, size: 0x8, addend: 0x0, symName: __ZNSt3__112basic_stringIcNS_11char_traitsIcEENS_9allocatorIcEEE14__default_initB7v160006Ev, symObjAddr: 0x35D8, symBinAddr: 0x100008A38, symSize: 0xB0 }
  - { offsetInCU: 0xAEE5, offset: 0x1C7E6, size: 0x8, addend: 0x0, symName: __ZNSt3__112basic_stringIcNS_11char_traitsIcEENS_9allocatorIcEEE11__recommendB7v160006Em, symObjAddr: 0x3688, symBinAddr: 0x100008AE8, symSize: 0x9C }
  - { offsetInCU: 0xAF18, offset: 0x1C819, size: 0x8, addend: 0x0, symName: __ZNSt3__116allocator_traitsINS_9allocatorIcEEE8allocateB7v160006ERS2_m, symObjAddr: 0x3724, symBinAddr: 0x100008B84, symSize: 0x2C }
  - { offsetInCU: 0xAF4B, offset: 0x1C84C, size: 0x8, addend: 0x0, symName: __ZNSt3__112basic_stringIcNS_11char_traitsIcEENS_9allocatorIcEEE7__allocB7v160006Ev, symObjAddr: 0x3750, symBinAddr: 0x100008BB0, symSize: 0x24 }
  - { offsetInCU: 0xAF70, offset: 0x1C871, size: 0x8, addend: 0x0, symName: __ZNSt3__112basic_stringIcNS_11char_traitsIcEENS_9allocatorIcEEE16__begin_lifetimeB7v160006EPcm, symObjAddr: 0x3774, symBinAddr: 0x100008BD4, symSize: 0x14 }
  - { offsetInCU: 0xAFA3, offset: 0x1C8A4, size: 0x8, addend: 0x0, symName: __ZNSt3__112basic_stringIcNS_11char_traitsIcEENS_9allocatorIcEEE18__set_long_pointerB7v160006EPc, symObjAddr: 0x3788, symBinAddr: 0x100008BE8, symSize: 0x38 }
  - { offsetInCU: 0xAFD7, offset: 0x1C8D8, size: 0x8, addend: 0x0, symName: __ZNSt3__112basic_stringIcNS_11char_traitsIcEENS_9allocatorIcEEE14__set_long_capB7v160006Em, symObjAddr: 0x37C0, symBinAddr: 0x100008C20, symSize: 0x70 }
  - { offsetInCU: 0xB00B, offset: 0x1C90C, size: 0x8, addend: 0x0, symName: __ZNSt3__112basic_stringIcNS_11char_traitsIcEENS_9allocatorIcEEE10__align_itB7v160006ILm16EEEmm, symObjAddr: 0x3830, symBinAddr: 0x100008C90, symSize: 0x1C }
  - { offsetInCU: 0xB039, offset: 0x1C93A, size: 0x8, addend: 0x0, symName: __ZNSt3__19allocatorIcE8allocateB7v160006Em, symObjAddr: 0x384C, symBinAddr: 0x100008CAC, symSize: 0x84 }
  - { offsetInCU: 0xB06C, offset: 0x1C96D, size: 0x8, addend: 0x0, symName: __ZNSt3__117__compressed_pairINS_12basic_stringIcNS_11char_traitsIcEENS_9allocatorIcEEE5__repES5_E6secondB7v160006Ev, symObjAddr: 0x3950, symBinAddr: 0x100008D30, symSize: 0x24 }
  - { offsetInCU: 0xB091, offset: 0x1C992, size: 0x8, addend: 0x0, symName: __ZNSt3__122__compressed_pair_elemINS_9allocatorIcEELi1ELb1EE5__getB7v160006Ev, symObjAddr: 0x3974, symBinAddr: 0x100008D54, symSize: 0x14 }
  - { offsetInCU: 0xB0B6, offset: 0x1C9B7, size: 0x8, addend: 0x0, symName: __ZNSt3__16vectorI8PlaylistNS_9allocatorIS1_EEE9__end_capB7v160006Ev, symObjAddr: 0x3988, symBinAddr: 0x100008D68, symSize: 0x28 }
  - { offsetInCU: 0xB0DB, offset: 0x1C9DC, size: 0x8, addend: 0x0, symName: __ZNSt3__16vectorI8PlaylistNS_9allocatorIS1_EEE22__construct_one_at_endB7v160006IJRKS1_EEEvDpOT_, symObjAddr: 0x39B0, symBinAddr: 0x100008D90, symSize: 0x98 }
  - { offsetInCU: 0xB128, offset: 0x1CA29, size: 0x8, addend: 0x0, symName: __ZNSt3__16vectorI8PlaylistNS_9allocatorIS1_EEE21__push_back_slow_pathIRKS1_EEvOT_, symObjAddr: 0x3A48, symBinAddr: 0x100008E28, symSize: 0xE0 }
  - { offsetInCU: 0xB185, offset: 0x1CA86, size: 0x8, addend: 0x0, symName: __ZNSt3__117__compressed_pairIP8PlaylistNS_9allocatorIS1_EEE5firstB7v160006Ev, symObjAddr: 0x3B28, symBinAddr: 0x100008F08, symSize: 0x24 }
  - { offsetInCU: 0xB1AA, offset: 0x1CAAB, size: 0x8, addend: 0x0, symName: __ZNSt3__122__compressed_pair_elemIP8PlaylistLi0ELb0EE5__getB7v160006Ev, symObjAddr: 0x3B4C, symBinAddr: 0x100008F2C, symSize: 0x14 }
  - { offsetInCU: 0xB1E8, offset: 0x1CAE9, size: 0x8, addend: 0x0, symName: __ZNSt3__16vectorI8PlaylistNS_9allocatorIS1_EEE21_ConstructTransactionC1B7v160006ERS4_m, symObjAddr: 0x3B60, symBinAddr: 0x100008F40, symSize: 0x3C }
  - { offsetInCU: 0xB22F, offset: 0x1CB30, size: 0x8, addend: 0x0, symName: __ZNSt3__116allocator_traitsINS_9allocatorI8PlaylistEEE9constructB7v160006IS2_JRKS2_EvEEvRS3_PT_DpOT0_, symObjAddr: 0x3B9C, symBinAddr: 0x100008F7C, symSize: 0x34 }
  - { offsetInCU: 0xB286, offset: 0x1CB87, size: 0x8, addend: 0x0, symName: __ZNSt3__16vectorI8PlaylistNS_9allocatorIS1_EEE21_ConstructTransactionD1B7v160006Ev, symObjAddr: 0x3BD0, symBinAddr: 0x100008FB0, symSize: 0x2C }
  - { offsetInCU: 0xB2AF, offset: 0x1CBB0, size: 0x8, addend: 0x0, symName: __ZNSt3__16vectorI8PlaylistNS_9allocatorIS1_EEE21_ConstructTransactionC2B7v160006ERS4_m, symObjAddr: 0x3BFC, symBinAddr: 0x100008FDC, symSize: 0x4C }
  - { offsetInCU: 0xB2F6, offset: 0x1CBF7, size: 0x8, addend: 0x0, symName: __ZNSt3__19allocatorI8PlaylistE9constructB7v160006IS1_JRKS1_EEEvPT_DpOT0_, symObjAddr: 0x3C48, symBinAddr: 0x100009028, symSize: 0x30 }
  - { offsetInCU: 0xB34B, offset: 0x1CC4C, size: 0x8, addend: 0x0, symName: __ZN8PlaylistC1ERKS_, symObjAddr: 0x3C78, symBinAddr: 0x100009058, symSize: 0x34 }
  - { offsetInCU: 0xB37F, offset: 0x1CC80, size: 0x8, addend: 0x0, symName: __ZN8PlaylistC2ERKS_, symObjAddr: 0x3CAC, symBinAddr: 0x10000908C, symSize: 0x78 }
  - { offsetInCU: 0xB3B3, offset: 0x1CCB4, size: 0x8, addend: 0x0, symName: __ZNSt3__16vectorI4SongNS_9allocatorIS1_EEEC1ERKS4_, symObjAddr: 0x3D24, symBinAddr: 0x100009104, symSize: 0x34 }
  - { offsetInCU: 0xB3ED, offset: 0x1CCEE, size: 0x8, addend: 0x0, symName: __ZNSt3__16vectorI4SongNS_9allocatorIS1_EEEC2ERKS4_, symObjAddr: 0x3D58, symBinAddr: 0x100009138, symSize: 0x11C }
  - { offsetInCU: 0xB455, offset: 0x1CD56, size: 0x8, addend: 0x0, symName: __ZNSt3__116allocator_traitsINS_9allocatorI4SongEEE37select_on_container_copy_constructionB7v160006IS3_vvEES3_RKS3_, symObjAddr: 0x3E74, symBinAddr: 0x100009254, symSize: 0x10 }
  - { offsetInCU: 0xB489, offset: 0x1CD8A, size: 0x8, addend: 0x0, symName: __ZNSt3__117__compressed_pairIP4SongNS_9allocatorIS1_EEEC1B7v160006IDnS4_EEOT_OT0_, symObjAddr: 0x3EAC, symBinAddr: 0x100009264, symSize: 0x3C }
  - { offsetInCU: 0xB4E0, offset: 0x1CDE1, size: 0x8, addend: 0x0, symName: __ZNSt3__16vectorI4SongNS_9allocatorIS1_EEE11__vallocateB7v160006Em, symObjAddr: 0x3F38, symBinAddr: 0x1000092E0, symSize: 0xB4 }
  - { offsetInCU: 0xB522, offset: 0x1CE23, size: 0x8, addend: 0x0, symName: __ZNSt3__16vectorI4SongNS_9allocatorIS1_EEE18__construct_at_endIPS1_Li0EEEvT_S7_m, symObjAddr: 0x3FEC, symBinAddr: 0x100009394, symSize: 0x94 }
  - { offsetInCU: 0xB594, offset: 0x1CE95, size: 0x8, addend: 0x0, symName: __ZNSt3__128__exception_guard_exceptionsINS_6vectorI4SongNS_9allocatorIS2_EEE16__destroy_vectorEE10__completeB7v160006Ev, symObjAddr: 0x4080, symBinAddr: 0x100009428, symSize: 0x1C }
  - { offsetInCU: 0xB5B9, offset: 0x1CEBA, size: 0x8, addend: 0x0, symName: __ZNSt3__128__exception_guard_exceptionsINS_6vectorI4SongNS_9allocatorIS2_EEE16__destroy_vectorEED1B7v160006Ev, symObjAddr: 0x409C, symBinAddr: 0x100009444, symSize: 0x2C }
  - { offsetInCU: 0xB5E2, offset: 0x1CEE3, size: 0x8, addend: 0x0, symName: __ZNSt3__117__compressed_pairIP4SongNS_9allocatorIS1_EEEC2B7v160006IDnS4_EEOT_OT0_, symObjAddr: 0x4100, symBinAddr: 0x100009470, symSize: 0x44 }
  - { offsetInCU: 0xB639, offset: 0x1CF3A, size: 0x8, addend: 0x0, symName: __ZNSt3__122__compressed_pair_elemINS_9allocatorI4SongEELi1ELb1EEC2B7v160006IS3_vEEOT_, symObjAddr: 0x4160, symBinAddr: 0x1000094B4, symSize: 0x18 }
  - { offsetInCU: 0xB67A, offset: 0x1CF7B, size: 0x8, addend: 0x0, symName: __ZNSt3__128__exception_guard_exceptionsINS_6vectorI4SongNS_9allocatorIS2_EEE16__destroy_vectorEEC1B7v160006ES6_, symObjAddr: 0x4178, symBinAddr: 0x1000094CC, symSize: 0x34 }
  - { offsetInCU: 0xB6B1, offset: 0x1CFB2, size: 0x8, addend: 0x0, symName: __ZNSt3__128__exception_guard_exceptionsINS_6vectorI4SongNS_9allocatorIS2_EEE16__destroy_vectorEEC2B7v160006ES6_, symObjAddr: 0x41AC, symBinAddr: 0x100009500, symSize: 0x24 }
  - { offsetInCU: 0xB701, offset: 0x1D002, size: 0x8, addend: 0x0, symName: __ZNSt3__129_AllocatorDestroyRangeReverseINS_9allocatorI4SongEEPS2_EC1B7v160006ERS3_RS4_S7_, symObjAddr: 0x4840, symBinAddr: 0x10000966C, symSize: 0x44 }
  - { offsetInCU: 0xB757, offset: 0x1D058, size: 0x8, addend: 0x0, symName: __ZNSt3__116allocator_traitsINS_9allocatorI4SongEEE9constructB7v160006IS2_JRS2_EvEEvRS3_PT_DpOT0_, symObjAddr: 0x4884, symBinAddr: 0x1000096B0, symSize: 0x34 }
  - { offsetInCU: 0xB7AE, offset: 0x1D0AF, size: 0x8, addend: 0x0, symName: __ZNSt3__128__exception_guard_exceptionsINS_29_AllocatorDestroyRangeReverseINS_9allocatorI4SongEEPS3_EEE10__completeB7v160006Ev, symObjAddr: 0x48B8, symBinAddr: 0x1000096E4, symSize: 0x1C }
  - { offsetInCU: 0xB7D3, offset: 0x1D0D4, size: 0x8, addend: 0x0, symName: __ZNSt3__128__exception_guard_exceptionsINS_29_AllocatorDestroyRangeReverseINS_9allocatorI4SongEEPS3_EEED1B7v160006Ev, symObjAddr: 0x48D4, symBinAddr: 0x100009700, symSize: 0x2C }
  - { offsetInCU: 0xB7FC, offset: 0x1D0FD, size: 0x8, addend: 0x0, symName: __ZNSt3__128__exception_guard_exceptionsINS_29_AllocatorDestroyRangeReverseINS_9allocatorI4SongEEPS3_EEEC1B7v160006ES6_, symObjAddr: 0x4900, symBinAddr: 0x10000972C, symSize: 0x34 }
  - { offsetInCU: 0xB834, offset: 0x1D135, size: 0x8, addend: 0x0, symName: __ZNSt3__128__exception_guard_exceptionsINS_29_AllocatorDestroyRangeReverseINS_9allocatorI4SongEEPS3_EEEC2B7v160006ES6_, symObjAddr: 0x4934, symBinAddr: 0x100009760, symSize: 0x30 }
  - { offsetInCU: 0xB86C, offset: 0x1D16D, size: 0x8, addend: 0x0, symName: __ZNSt3__129_AllocatorDestroyRangeReverseINS_9allocatorI4SongEEPS2_EC2B7v160006ERS3_RS4_S7_, symObjAddr: 0x4964, symBinAddr: 0x100009790, symSize: 0x38 }
  - { offsetInCU: 0xB8C2, offset: 0x1D1C3, size: 0x8, addend: 0x0, symName: __ZNSt3__19allocatorI4SongE9constructB7v160006IS1_JRS1_EEEvPT_DpOT0_, symObjAddr: 0x499C, symBinAddr: 0x1000097C8, symSize: 0x30 }
  - { offsetInCU: 0xB917, offset: 0x1D218, size: 0x8, addend: 0x0, symName: __ZNSt3__128__exception_guard_exceptionsINS_29_AllocatorDestroyRangeReverseINS_9allocatorI4SongEEPS3_EEED2B7v160006Ev, symObjAddr: 0x4A78, symBinAddr: 0x1000097F8, symSize: 0x48 }
  - { offsetInCU: 0xB940, offset: 0x1D241, size: 0x8, addend: 0x0, symName: __ZNKSt3__129_AllocatorDestroyRangeReverseINS_9allocatorI4SongEEPS2_EclB7v160006Ev, symObjAddr: 0x4AC0, symBinAddr: 0x100009840, symSize: 0x68 }
  - { offsetInCU: 0xB965, offset: 0x1D266, size: 0x8, addend: 0x0, symName: __ZNSt3__128__exception_guard_exceptionsINS_6vectorI4SongNS_9allocatorIS2_EEE16__destroy_vectorEED2B7v160006Ev, symObjAddr: 0x4D50, symBinAddr: 0x100009918, symSize: 0x48 }
  - { offsetInCU: 0xB98E, offset: 0x1D28F, size: 0x8, addend: 0x0, symName: __ZNSt3__16vectorI8PlaylistNS_9allocatorIS1_EEE21_ConstructTransactionD2B7v160006Ev, symObjAddr: 0x4D98, symBinAddr: 0x100009960, symSize: 0x20 }
  - { offsetInCU: 0xB9B6, offset: 0x1D2B7, size: 0x8, addend: 0x0, symName: __ZNKSt3__16vectorI8PlaylistNS_9allocatorIS1_EEE11__recommendB7v160006Em, symObjAddr: 0x4DB8, symBinAddr: 0x100009980, symSize: 0xB4 }
  - { offsetInCU: 0xBA0A, offset: 0x1D30B, size: 0x8, addend: 0x0, symName: __ZNSt3__114__split_bufferI8PlaylistRNS_9allocatorIS1_EEEC1EmmS4_, symObjAddr: 0x4E6C, symBinAddr: 0x100009A34, symSize: 0x44 }
  - { offsetInCU: 0xBA5F, offset: 0x1D360, size: 0x8, addend: 0x0, symName: __ZNSt3__114__split_bufferI8PlaylistRNS_9allocatorIS1_EEED1Ev, symObjAddr: 0x4FC8, symBinAddr: 0x100009B90, symSize: 0x2C }
  - { offsetInCU: 0xBA89, offset: 0x1D38A, size: 0x8, addend: 0x0, symName: __ZNKSt3__16vectorI8PlaylistNS_9allocatorIS1_EEE8max_sizeEv, symObjAddr: 0x4FF4, symBinAddr: 0x100009BBC, symSize: 0x74 }
  - { offsetInCU: 0xBAB0, offset: 0x1D3B1, size: 0x8, addend: 0x0, symName: __ZNKSt3__16vectorI8PlaylistNS_9allocatorIS1_EEE20__throw_length_errorB7v160006Ev, symObjAddr: 0x5068, symBinAddr: 0x100009C30, symSize: 0x1C }
  - { offsetInCU: 0xBADF, offset: 0x1D3E0, size: 0x8, addend: 0x0, symName: __ZNSt3__116allocator_traitsINS_9allocatorI8PlaylistEEE8max_sizeB7v160006IS3_vEEmRKS3_, symObjAddr: 0x50B0, symBinAddr: 0x100009C4C, symSize: 0x24 }
  - { offsetInCU: 0xBB0D, offset: 0x1D40E, size: 0x8, addend: 0x0, symName: __ZNKSt3__16vectorI8PlaylistNS_9allocatorIS1_EEE7__allocB7v160006Ev, symObjAddr: 0x50D4, symBinAddr: 0x100009C70, symSize: 0x28 }
  - { offsetInCU: 0xBB32, offset: 0x1D433, size: 0x8, addend: 0x0, symName: __ZNKSt3__19allocatorI8PlaylistE8max_sizeB7v160006Ev, symObjAddr: 0x50FC, symBinAddr: 0x100009C98, symSize: 0x18 }
  - { offsetInCU: 0xBB57, offset: 0x1D458, size: 0x8, addend: 0x0, symName: __ZNKSt3__117__compressed_pairIP8PlaylistNS_9allocatorIS1_EEE6secondB7v160006Ev, symObjAddr: 0x5114, symBinAddr: 0x100009CB0, symSize: 0x24 }
  - { offsetInCU: 0xBB7C, offset: 0x1D47D, size: 0x8, addend: 0x0, symName: __ZNKSt3__122__compressed_pair_elemINS_9allocatorI8PlaylistEELi1ELb1EE5__getB7v160006Ev, symObjAddr: 0x5138, symBinAddr: 0x100009CD4, symSize: 0x14 }
  - { offsetInCU: 0xBBA1, offset: 0x1D4A2, size: 0x8, addend: 0x0, symName: __ZNSt3__114__split_bufferI8PlaylistRNS_9allocatorIS1_EEEC2EmmS4_, symObjAddr: 0x51A0, symBinAddr: 0x100009CE8, symSize: 0xE0 }
  - { offsetInCU: 0xBC14, offset: 0x1D515, size: 0x8, addend: 0x0, symName: __ZNSt3__117__compressed_pairIP8PlaylistRNS_9allocatorIS1_EEEC1B7v160006IDnS5_EEOT_OT0_, symObjAddr: 0x5280, symBinAddr: 0x100009DC8, symSize: 0x3C }
  - { offsetInCU: 0xBC6B, offset: 0x1D56C, size: 0x8, addend: 0x0, symName: __ZNSt3__114__split_bufferI8PlaylistRNS_9allocatorIS1_EEE7__allocB7v160006Ev, symObjAddr: 0x52FC, symBinAddr: 0x100009E44, symSize: 0x28 }
  - { offsetInCU: 0xBC90, offset: 0x1D591, size: 0x8, addend: 0x0, symName: __ZNSt3__114__split_bufferI8PlaylistRNS_9allocatorIS1_EEE9__end_capB7v160006Ev, symObjAddr: 0x5324, symBinAddr: 0x100009E6C, symSize: 0x28 }
  - { offsetInCU: 0xBCB5, offset: 0x1D5B6, size: 0x8, addend: 0x0, symName: __ZNSt3__117__compressed_pairIP8PlaylistRNS_9allocatorIS1_EEEC2B7v160006IDnS5_EEOT_OT0_, symObjAddr: 0x534C, symBinAddr: 0x100009E94, symSize: 0x48 }
  - { offsetInCU: 0xBD0C, offset: 0x1D60D, size: 0x8, addend: 0x0, symName: __ZNSt3__122__compressed_pair_elemIRNS_9allocatorI8PlaylistEELi1ELb0EEC2B7v160006IS4_vEEOT_, symObjAddr: 0x5394, symBinAddr: 0x100009EDC, symSize: 0x20 }
  - { offsetInCU: 0xBD4D, offset: 0x1D64E, size: 0x8, addend: 0x0, symName: __ZNSt3__19allocatorI8PlaylistE8allocateB7v160006Em, symObjAddr: 0x53B4, symBinAddr: 0x100009EFC, symSize: 0x8C }
  - { offsetInCU: 0xBD80, offset: 0x1D681, size: 0x8, addend: 0x0, symName: __ZNSt3__117__compressed_pairIP8PlaylistRNS_9allocatorIS1_EEE6secondB7v160006Ev, symObjAddr: 0x5440, symBinAddr: 0x100009F88, symSize: 0x28 }
  - { offsetInCU: 0xBDA5, offset: 0x1D6A6, size: 0x8, addend: 0x0, symName: __ZNSt3__122__compressed_pair_elemIRNS_9allocatorI8PlaylistEELi1ELb0EE5__getB7v160006Ev, symObjAddr: 0x5468, symBinAddr: 0x100009FB0, symSize: 0x18 }
  - { offsetInCU: 0xBDCA, offset: 0x1D6CB, size: 0x8, addend: 0x0, symName: __ZNSt3__117__compressed_pairIP8PlaylistRNS_9allocatorIS1_EEE5firstB7v160006Ev, symObjAddr: 0x5480, symBinAddr: 0x100009FC8, symSize: 0x24 }
  - { offsetInCU: 0xBDEF, offset: 0x1D6F0, size: 0x8, addend: 0x0, symName: __ZNSt3__116reverse_iteratorIP8PlaylistEC1B7v160006ES2_, symObjAddr: 0x55D8, symBinAddr: 0x10000A120, symSize: 0x34 }
  - { offsetInCU: 0xBE26, offset: 0x1D727, size: 0x8, addend: 0x0, symName: __ZNKSt3__116reverse_iteratorIP8PlaylistE4baseB7v160006Ev, symObjAddr: 0x560C, symBinAddr: 0x10000A154, symSize: 0x18 }
  - { offsetInCU: 0xBE4B, offset: 0x1D74C, size: 0x8, addend: 0x0, symName: __ZNKSt3__16vectorI8PlaylistNS_9allocatorIS1_EEE14__annotate_newB7v160006Em, symObjAddr: 0x5660, symBinAddr: 0x10000A1A8, symSize: 0xC8 }
  - { offsetInCU: 0xBE7F, offset: 0x1D780, size: 0x8, addend: 0x0, symName: __ZNSt3__129_AllocatorDestroyRangeReverseINS_9allocatorI8PlaylistEENS_16reverse_iteratorIPS2_EEEC1B7v160006ERS3_RS6_S9_, symObjAddr: 0x5784, symBinAddr: 0x10000A2CC, symSize: 0x44 }
  - { offsetInCU: 0xBED5, offset: 0x1D7D6, size: 0x8, addend: 0x0, symName: __ZNKSt3__116reverse_iteratorIP8PlaylistEdeB7v160006Ev, symObjAddr: 0x5834, symBinAddr: 0x10000A37C, symSize: 0x28 }
  - { offsetInCU: 0xBF08, offset: 0x1D809, size: 0x8, addend: 0x0, symName: __ZNSt3__116reverse_iteratorIP8PlaylistEppB7v160006Ev, symObjAddr: 0x585C, symBinAddr: 0x10000A3A4, symSize: 0x20 }
  - { offsetInCU: 0xBF2D, offset: 0x1D82E, size: 0x8, addend: 0x0, symName: __ZNSt3__128__exception_guard_exceptionsINS_29_AllocatorDestroyRangeReverseINS_9allocatorI8PlaylistEENS_16reverse_iteratorIPS3_EEEEE10__completeB7v160006Ev, symObjAddr: 0x587C, symBinAddr: 0x10000A3C4, symSize: 0x1C }
  - { offsetInCU: 0xBF52, offset: 0x1D853, size: 0x8, addend: 0x0, symName: __ZNSt3__128__exception_guard_exceptionsINS_29_AllocatorDestroyRangeReverseINS_9allocatorI8PlaylistEENS_16reverse_iteratorIPS3_EEEEED1B7v160006Ev, symObjAddr: 0x5898, symBinAddr: 0x10000A3E0, symSize: 0x2C }
  - { offsetInCU: 0xBF7B, offset: 0x1D87C, size: 0x8, addend: 0x0, symName: __ZNSt3__128__exception_guard_exceptionsINS_29_AllocatorDestroyRangeReverseINS_9allocatorI8PlaylistEENS_16reverse_iteratorIPS3_EEEEEC1B7v160006ES8_, symObjAddr: 0x58C4, symBinAddr: 0x10000A40C, symSize: 0x34 }
  - { offsetInCU: 0xBFB3, offset: 0x1D8B4, size: 0x8, addend: 0x0, symName: __ZNSt3__128__exception_guard_exceptionsINS_29_AllocatorDestroyRangeReverseINS_9allocatorI8PlaylistEENS_16reverse_iteratorIPS3_EEEEEC2B7v160006ES8_, symObjAddr: 0x58F8, symBinAddr: 0x10000A440, symSize: 0x30 }
  - { offsetInCU: 0xBFEB, offset: 0x1D8EC, size: 0x8, addend: 0x0, symName: __ZNSt3__129_AllocatorDestroyRangeReverseINS_9allocatorI8PlaylistEENS_16reverse_iteratorIPS2_EEEC2B7v160006ERS3_RS6_S9_, symObjAddr: 0x5928, symBinAddr: 0x10000A470, symSize: 0x38 }
  - { offsetInCU: 0xC046, offset: 0x1D947, size: 0x8, addend: 0x0, symName: __ZNSt3__119__to_address_helperINS_16reverse_iteratorIP8PlaylistEEvE6__callB7v160006ERKS4_, symObjAddr: 0x5960, symBinAddr: 0x10000A4A8, symSize: 0x4C }
  - { offsetInCU: 0xC069, offset: 0x1D96A, size: 0x8, addend: 0x0, symName: __ZNKSt3__116reverse_iteratorIP8PlaylistEptB7v160006Ev, symObjAddr: 0x59AC, symBinAddr: 0x10000A4F4, symSize: 0x24 }
  - { offsetInCU: 0xC08E, offset: 0x1D98F, size: 0x8, addend: 0x0, symName: __ZNSt3__128__exception_guard_exceptionsINS_29_AllocatorDestroyRangeReverseINS_9allocatorI8PlaylistEENS_16reverse_iteratorIPS3_EEEEED2B7v160006Ev, symObjAddr: 0x59D0, symBinAddr: 0x10000A518, symSize: 0x48 }
  - { offsetInCU: 0xC0B7, offset: 0x1D9B8, size: 0x8, addend: 0x0, symName: __ZNKSt3__129_AllocatorDestroyRangeReverseINS_9allocatorI8PlaylistEENS_16reverse_iteratorIPS2_EEEclB7v160006Ev, symObjAddr: 0x5A18, symBinAddr: 0x10000A560, symSize: 0xB4 }
  - { offsetInCU: 0xC0DD, offset: 0x1D9DE, size: 0x8, addend: 0x0, symName: __ZNSt3__116reverse_iteratorINS0_IP8PlaylistEEEC1B7v160006ES3_, symObjAddr: 0x5B3C, symBinAddr: 0x10000A684, symSize: 0x3C }
  - { offsetInCU: 0xC114, offset: 0x1DA15, size: 0x8, addend: 0x0, symName: __ZNSt3__116reverse_iteratorINS0_IP8PlaylistEEEppB7v160006Ev, symObjAddr: 0x5BFC, symBinAddr: 0x10000A744, symSize: 0x30 }
  - { offsetInCU: 0xC139, offset: 0x1DA3A, size: 0x8, addend: 0x0, symName: __ZNKSt3__116reverse_iteratorINS0_IP8PlaylistEEE4baseB7v160006Ev, symObjAddr: 0x5C2C, symBinAddr: 0x10000A774, symSize: 0x24 }
  - { offsetInCU: 0xC163, offset: 0x1DA64, size: 0x8, addend: 0x0, symName: __ZNSt3__119__to_address_helperINS_16reverse_iteratorINS1_IP8PlaylistEEEEvE6__callB7v160006ERKS5_, symObjAddr: 0x5C50, symBinAddr: 0x10000A798, symSize: 0x4C }
  - { offsetInCU: 0xC186, offset: 0x1DA87, size: 0x8, addend: 0x0, symName: __ZNKSt3__116reverse_iteratorINS0_IP8PlaylistEEEptB7v160006Ev, symObjAddr: 0x5C9C, symBinAddr: 0x10000A7E4, symSize: 0x24 }
  - { offsetInCU: 0xC1AB, offset: 0x1DAAC, size: 0x8, addend: 0x0, symName: __ZNKSt3__116reverse_iteratorINS0_IP8PlaylistEEEdeB7v160006Ev, symObjAddr: 0x5CC0, symBinAddr: 0x10000A808, symSize: 0x34 }
  - { offsetInCU: 0xC1DE, offset: 0x1DADF, size: 0x8, addend: 0x0, symName: __ZNSt3__116reverse_iteratorIP8PlaylistEmmB7v160006Ev, symObjAddr: 0x5CF4, symBinAddr: 0x10000A83C, symSize: 0x20 }
  - { offsetInCU: 0xC203, offset: 0x1DB04, size: 0x8, addend: 0x0, symName: __ZNSt3__116reverse_iteratorINS0_IP8PlaylistEEEC2B7v160006ES3_, symObjAddr: 0x5D14, symBinAddr: 0x10000A85C, symSize: 0x2C }
  - { offsetInCU: 0xC23A, offset: 0x1DB3B, size: 0x8, addend: 0x0, symName: __ZNSt3__116reverse_iteratorIP8PlaylistEC2B7v160006ES2_, symObjAddr: 0x5D40, symBinAddr: 0x10000A888, symSize: 0x28 }
  - { offsetInCU: 0xC271, offset: 0x1DB72, size: 0x8, addend: 0x0, symName: __ZNSt3__114__split_bufferI8PlaylistRNS_9allocatorIS1_EEED2Ev, symObjAddr: 0x5D68, symBinAddr: 0x10000A8B0, symSize: 0x80 }
  - { offsetInCU: 0xC29C, offset: 0x1DB9D, size: 0x8, addend: 0x0, symName: __ZNSt3__114__split_bufferI8PlaylistRNS_9allocatorIS1_EEE5clearB7v160006Ev, symObjAddr: 0x5DE8, symBinAddr: 0x10000A930, symSize: 0x28 }
  - { offsetInCU: 0xC2C1, offset: 0x1DBC2, size: 0x8, addend: 0x0, symName: __ZNKSt3__114__split_bufferI8PlaylistRNS_9allocatorIS1_EEE8capacityB7v160006Ev, symObjAddr: 0x5E10, symBinAddr: 0x10000A958, symSize: 0x40 }
  - { offsetInCU: 0xC2E6, offset: 0x1DBE7, size: 0x8, addend: 0x0, symName: __ZNSt3__114__split_bufferI8PlaylistRNS_9allocatorIS1_EEE17__destruct_at_endB7v160006EPS1_, symObjAddr: 0x5E50, symBinAddr: 0x10000A998, symSize: 0x2C }
  - { offsetInCU: 0xC318, offset: 0x1DC19, size: 0x8, addend: 0x0, symName: __ZNSt3__114__split_bufferI8PlaylistRNS_9allocatorIS1_EEE17__destruct_at_endB7v160006EPS1_NS_17integral_constantIbLb0EEE, symObjAddr: 0x5E7C, symBinAddr: 0x10000A9C4, symSize: 0x94 }
  - { offsetInCU: 0xC358, offset: 0x1DC59, size: 0x8, addend: 0x0, symName: __ZNKSt3__114__split_bufferI8PlaylistRNS_9allocatorIS1_EEE9__end_capB7v160006Ev, symObjAddr: 0x5F10, symBinAddr: 0x10000AA58, symSize: 0x28 }
  - { offsetInCU: 0xC37D, offset: 0x1DC7E, size: 0x8, addend: 0x0, symName: __ZNKSt3__117__compressed_pairIP8PlaylistRNS_9allocatorIS1_EEE5firstB7v160006Ev, symObjAddr: 0x5F38, symBinAddr: 0x10000AA80, symSize: 0x24 }
  - { offsetInCU: 0x26, offset: 0x1DD90, size: 0x8, addend: 0x0, symName: _main, symObjAddr: 0x0, symBinAddr: 0x10000AAA4, symSize: 0x6C }
  - { offsetInCU: 0x450E, offset: 0x22278, size: 0x8, addend: 0x0, symName: _main, symObjAddr: 0x0, symBinAddr: 0x10000AAA4, symSize: 0x6C }
...
